

Microchip MPLAB XC8 Assembler V2.05 build -831301201 
                                                                                               Sun Mar 03 16:43:03 2019

Microchip MPLAB XC8 C Compiler v2.05 (Free license) build 20181220022703 Og1 
     1                           	processor	16F18345
     2                           	opt	pw 120
     3                           	opt	flic
     4                           	psect	idataBANK0,global,class=CODE,delta=2
     5                           	psect	stringtext1,global,class=STRCODE,delta=2
     6                           	psect	stringtext2,global,class=STRCODE,delta=2
     7                           	psect	stringtext3,global,class=STRCODE,delta=2
     8                           	psect	cinit,global,class=CODE,merge=1,delta=2
     9                           	psect	bssBANK0,global,class=BANK0,space=1,delta=1
    10                           	psect	dataBANK0,global,class=BANK0,space=1,delta=1
    11                           	psect	inittext,global,class=CODE,delta=2
    12                           	psect	cstackCOMMON,global,class=COMMON,space=1,delta=1
    13                           	psect	maintext,global,class=CODE,merge=1,split=1,delta=2
    14                           	psect	text1,local,class=CODE,merge=1,delta=2
    15                           	psect	text2,local,class=CODE,merge=1,delta=2
    16                           	psect	text3,local,class=CODE,merge=1,delta=2
    17                           	psect	text4,local,class=CODE,merge=1,delta=2
    18                           	psect	text5,local,class=CODE,merge=1,delta=2
    19                           	psect	text6,local,class=CODE,merge=1,delta=2
    20                           	psect	text7,local,class=CODE,merge=1,delta=2
    21                           	psect	text8,local,class=CODE,merge=1,delta=2
    22                           	psect	text9,local,class=CODE,merge=1,delta=2
    23                           	psect	text10,local,class=CODE,merge=1,delta=2
    24                           	psect	text11,local,class=CODE,merge=1,delta=2
    25                           	psect	text12,local,class=CODE,merge=1,delta=2
    26                           	psect	text13,local,class=CODE,merge=1,delta=2
    27                           	psect	text14,local,class=CODE,merge=1,delta=2
    28                           	psect	text15,local,class=CODE,merge=1,delta=2
    29                           	psect	text16,local,class=CODE,merge=1,delta=2
    30                           	psect	text17,local,class=CODE,merge=1,delta=2
    31                           	psect	text18,local,class=CODE,merge=1,delta=2
    32                           	dabs	1,0x7E,2
    33  0000                     
    34                           ; Version 2.05
    35                           ; Generated 20/12/2018 GMT
    36                           ; 
    37                           ; Copyright © 2018, Microchip Technology Inc. and its subsidiaries ("Microchip")
    38                           ; All rights reserved.
    39                           ; 
    40                           ; This software is developed by Microchip Technology Inc. and its subsidiaries ("Microch
      +                          ip").
    41                           ; 
    42                           ; Redistribution and use in source and binary forms, with or without modification, are
    43                           ; permitted provided that the following conditions are met:
    44                           ; 
    45                           ;     1. Redistributions of source code must retain the above copyright notice, this lis
      +                          t of
    46                           ;        conditions and the following disclaimer.
    47                           ; 
    48                           ;     2. Redistributions in binary form must reproduce the above copyright notice, this 
      +                          list
    49                           ;        of conditions and the following disclaimer in the documentation and/or other
    50                           ;        materials provided with the distribution.
    51                           ; 
    52                           ;     3. Microchip's name may not be used to endorse or promote products derived from th
      +                          is
    53                           ;        software without specific prior written permission.
    54                           ; 
    55                           ; THIS SOFTWARE IS PROVIDED BY MICROCHIP "AS IS" AND ANY EXPRESS OR IMPLIED WARRANTIES,
    56                           ; INCLUDING, BUT NOT LIMITED TO, THE IMPLIED WARRANTIES OF MERCHANTABILITY AND FITNESS F
      +                          OR
    57                           ; PURPOSE ARE DISCLAIMED.  IN NO EVENT SHALL MICROCHIP BE LIABLE FOR ANY DIRECT, INDIREC
      +                          T,
    58                           ; INCIDENTAL, SPECIAL, EXEMPLARY, OR CONSEQUENTIAL DAMAGES (INCLUDING BUT NOT LIMITED TO
    59                           ; PROCUREMENT OF SUBSTITUTE GOODS OR SERVICES; LOSS OF USE, DATA OR PROFITS; OR BUSINESS
    60                           ; INTERRUPTION) HOWSOEVER CAUSED AND ON ANY THEORY OF LIABILITY, WHETHER IN CONTRACT, ST
      +                          RICT
    61                           ; LIABILITY, OR TORT (INCLUDING NEGLIGENCE OR OTHERWISE) ARISING IN ANY WAY OUT OF THE U
      +                          SE OF
    62                           ; THIS SOFTWARE, EVEN IF ADVISED OF THE POSSIBILITY OF SUCH DAMAGE.
    63                           ; 
    64                           ; 
    65                           ; Code-generator required, PIC16F18345 Definitions
    66                           ; 
    67                           ; SFR Addresses
    68  0000                     	;# 
    69  0001                     	;# 
    70  0002                     	;# 
    71  0003                     	;# 
    72  0004                     	;# 
    73  0005                     	;# 
    74  0006                     	;# 
    75  0007                     	;# 
    76  0008                     	;# 
    77  0009                     	;# 
    78  000A                     	;# 
    79  000B                     	;# 
    80  000C                     	;# 
    81  000D                     	;# 
    82  000E                     	;# 
    83  0010                     	;# 
    84  0011                     	;# 
    85  0012                     	;# 
    86  0013                     	;# 
    87  0014                     	;# 
    88  0015                     	;# 
    89  0015                     	;# 
    90  0016                     	;# 
    91  0016                     	;# 
    92  0017                     	;# 
    93  0018                     	;# 
    94  0019                     	;# 
    95  0019                     	;# 
    96  001A                     	;# 
    97  001B                     	;# 
    98  001C                     	;# 
    99  001D                     	;# 
   100  001E                     	;# 
   101  001F                     	;# 
   102  008C                     	;# 
   103  008D                     	;# 
   104  008E                     	;# 
   105  0090                     	;# 
   106  0091                     	;# 
   107  0092                     	;# 
   108  0093                     	;# 
   109  0094                     	;# 
   110  0097                     	;# 
   111  009B                     	;# 
   112  009B                     	;# 
   113  009C                     	;# 
   114  009D                     	;# 
   115  009E                     	;# 
   116  009F                     	;# 
   117  010C                     	;# 
   118  010D                     	;# 
   119  010E                     	;# 
   120  0111                     	;# 
   121  0112                     	;# 
   122  0113                     	;# 
   123  0114                     	;# 
   124  0115                     	;# 
   125  0116                     	;# 
   126  0117                     	;# 
   127  0118                     	;# 
   128  0119                     	;# 
   129  018C                     	;# 
   130  018D                     	;# 
   131  018E                     	;# 
   132  0197                     	;# 
   133  0199                     	;# 
   134  0199                     	;# 
   135  0199                     	;# 
   136  019A                     	;# 
   137  019A                     	;# 
   138  019A                     	;# 
   139  019B                     	;# 
   140  019B                     	;# 
   141  019B                     	;# 
   142  019B                     	;# 
   143  019B                     	;# 
   144  019C                     	;# 
   145  019C                     	;# 
   146  019C                     	;# 
   147  019D                     	;# 
   148  019D                     	;# 
   149  019D                     	;# 
   150  019E                     	;# 
   151  019E                     	;# 
   152  019E                     	;# 
   153  019F                     	;# 
   154  019F                     	;# 
   155  019F                     	;# 
   156  019F                     	;# 
   157  019F                     	;# 
   158  020C                     	;# 
   159  020D                     	;# 
   160  020E                     	;# 
   161  0211                     	;# 
   162  0211                     	;# 
   163  0212                     	;# 
   164  0212                     	;# 
   165  0213                     	;# 
   166  0213                     	;# 
   167  0214                     	;# 
   168  0214                     	;# 
   169  0215                     	;# 
   170  0215                     	;# 
   171  0215                     	;# 
   172  0215                     	;# 
   173  0216                     	;# 
   174  0216                     	;# 
   175  0217                     	;# 
   176  0217                     	;# 
   177  0219                     	;# 
   178  021A                     	;# 
   179  021B                     	;# 
   180  021C                     	;# 
   181  021D                     	;# 
   182  021D                     	;# 
   183  021E                     	;# 
   184  021F                     	;# 
   185  028C                     	;# 
   186  028D                     	;# 
   187  028E                     	;# 
   188  0291                     	;# 
   189  0291                     	;# 
   190  0292                     	;# 
   191  0293                     	;# 
   192  0294                     	;# 
   193  0295                     	;# 
   194  0295                     	;# 
   195  0296                     	;# 
   196  0297                     	;# 
   197  0298                     	;# 
   198  029F                     	;# 
   199  030C                     	;# 
   200  030D                     	;# 
   201  030E                     	;# 
   202  0311                     	;# 
   203  0311                     	;# 
   204  0312                     	;# 
   205  0313                     	;# 
   206  0314                     	;# 
   207  0315                     	;# 
   208  0315                     	;# 
   209  0316                     	;# 
   210  0317                     	;# 
   211  0318                     	;# 
   212  038C                     	;# 
   213  038D                     	;# 
   214  038E                     	;# 
   215  0391                     	;# 
   216  0392                     	;# 
   217  0393                     	;# 
   218  0394                     	;# 
   219  0395                     	;# 
   220  0396                     	;# 
   221  0397                     	;# 
   222  0398                     	;# 
   223  0399                     	;# 
   224  039A                     	;# 
   225  039C                     	;# 
   226  039D                     	;# 
   227  039E                     	;# 
   228  039F                     	;# 
   229  0411                     	;# 
   230  0411                     	;# 
   231  0412                     	;# 
   232  0413                     	;# 
   233  0414                     	;# 
   234  0415                     	;# 
   235  0416                     	;# 
   236  0417                     	;# 
   237  0418                     	;# 
   238  0418                     	;# 
   239  0419                     	;# 
   240  041A                     	;# 
   241  041B                     	;# 
   242  041C                     	;# 
   243  041D                     	;# 
   244  041E                     	;# 
   245  041F                     	;# 
   246  0498                     	;# 
   247  0498                     	;# 
   248  0499                     	;# 
   249  049A                     	;# 
   250  049B                     	;# 
   251  049B                     	;# 
   252  049C                     	;# 
   253  049D                     	;# 
   254  049E                     	;# 
   255  049F                     	;# 
   256  0617                     	;# 
   257  0618                     	;# 
   258  0619                     	;# 
   259  0619                     	;# 
   260  061A                     	;# 
   261  061B                     	;# 
   262  061C                     	;# 
   263  061C                     	;# 
   264  061F                     	;# 
   265  0691                     	;# 
   266  0692                     	;# 
   267  0693                     	;# 
   268  0694                     	;# 
   269  0695                     	;# 
   270  0696                     	;# 
   271  0697                     	;# 
   272  0698                     	;# 
   273  0699                     	;# 
   274  0711                     	;# 
   275  0712                     	;# 
   276  0713                     	;# 
   277  0714                     	;# 
   278  0715                     	;# 
   279  0716                     	;# 
   280  0717                     	;# 
   281  0718                     	;# 
   282  0719                     	;# 
   283  0891                     	;# 
   284  0891                     	;# 
   285  0891                     	;# 
   286  0891                     	;# 
   287  0891                     	;# 
   288  0891                     	;# 
   289  0892                     	;# 
   290  0892                     	;# 
   291  0892                     	;# 
   292  0893                     	;# 
   293  0893                     	;# 
   294  0893                     	;# 
   295  0893                     	;# 
   296  0893                     	;# 
   297  0893                     	;# 
   298  0894                     	;# 
   299  0894                     	;# 
   300  0894                     	;# 
   301  0895                     	;# 
   302  0895                     	;# 
   303  0895                     	;# 
   304  0896                     	;# 
   305  0896                     	;# 
   306  0896                     	;# 
   307  089B                     	;# 
   308  0911                     	;# 
   309  0912                     	;# 
   310  0913                     	;# 
   311  0914                     	;# 
   312  0915                     	;# 
   313  0916                     	;# 
   314  0918                     	;# 
   315  0919                     	;# 
   316  091A                     	;# 
   317  091B                     	;# 
   318  091C                     	;# 
   319  091D                     	;# 
   320  091E                     	;# 
   321  091F                     	;# 
   322  0E0F                     	;# 
   323  0E10                     	;# 
   324  0E11                     	;# 
   325  0E12                     	;# 
   326  0E13                     	;# 
   327  0E14                     	;# 
   328  0E15                     	;# 
   329  0E16                     	;# 
   330  0E17                     	;# 
   331  0E18                     	;# 
   332  0E19                     	;# 
   333  0E1A                     	;# 
   334  0E1B                     	;# 
   335  0E1C                     	;# 
   336  0E1D                     	;# 
   337  0E1E                     	;# 
   338  0E1F                     	;# 
   339  0E20                     	;# 
   340  0E21                     	;# 
   341  0E22                     	;# 
   342  0E24                     	;# 
   343  0E25                     	;# 
   344  0E28                     	;# 
   345  0E29                     	;# 
   346  0E2A                     	;# 
   347  0E2B                     	;# 
   348  0E2C                     	;# 
   349  0E2D                     	;# 
   350  0E2E                     	;# 
   351  0E2F                     	;# 
   352  0E90                     	;# 
   353  0E91                     	;# 
   354  0E92                     	;# 
   355  0E94                     	;# 
   356  0E95                     	;# 
   357  0E9C                     	;# 
   358  0E9D                     	;# 
   359  0E9E                     	;# 
   360  0E9F                     	;# 
   361  0EA0                     	;# 
   362  0EA1                     	;# 
   363  0EA2                     	;# 
   364  0EA3                     	;# 
   365  0EA4                     	;# 
   366  0EA5                     	;# 
   367  0EA6                     	;# 
   368  0EA7                     	;# 
   369  0F0F                     	;# 
   370  0F10                     	;# 
   371  0F11                     	;# 
   372  0F12                     	;# 
   373  0F13                     	;# 
   374  0F14                     	;# 
   375  0F15                     	;# 
   376  0F16                     	;# 
   377  0F17                     	;# 
   378  0F18                     	;# 
   379  0F19                     	;# 
   380  0F1A                     	;# 
   381  0F1B                     	;# 
   382  0F1C                     	;# 
   383  0F1D                     	;# 
   384  0F1E                     	;# 
   385  0F1F                     	;# 
   386  0F20                     	;# 
   387  0F21                     	;# 
   388  0F22                     	;# 
   389  0F23                     	;# 
   390  0F24                     	;# 
   391  0F25                     	;# 
   392  0F26                     	;# 
   393  0F27                     	;# 
   394  0F28                     	;# 
   395  0F29                     	;# 
   396  0F2A                     	;# 
   397  0F2B                     	;# 
   398  0F2C                     	;# 
   399  0F2D                     	;# 
   400  0F2E                     	;# 
   401  0F2F                     	;# 
   402  0F30                     	;# 
   403  0F31                     	;# 
   404  0F32                     	;# 
   405  0F33                     	;# 
   406  0F34                     	;# 
   407  0F35                     	;# 
   408  0F36                     	;# 
   409  0F37                     	;# 
   410  0FE4                     	;# 
   411  0FE5                     	;# 
   412  0FE6                     	;# 
   413  0FE7                     	;# 
   414  0FE8                     	;# 
   415  0FE9                     	;# 
   416  0FEA                     	;# 
   417  0FEB                     	;# 
   418  0FED                     	;# 
   419  0FEE                     	;# 
   420  0FEF                     	;# 
   421  0000                     	;# 
   422  0001                     	;# 
   423  0002                     	;# 
   424  0003                     	;# 
   425  0004                     	;# 
   426  0005                     	;# 
   427  0006                     	;# 
   428  0007                     	;# 
   429  0008                     	;# 
   430  0009                     	;# 
   431  000A                     	;# 
   432  000B                     	;# 
   433  000C                     	;# 
   434  000D                     	;# 
   435  000E                     	;# 
   436  0010                     	;# 
   437  0011                     	;# 
   438  0012                     	;# 
   439  0013                     	;# 
   440  0014                     	;# 
   441  0015                     	;# 
   442  0015                     	;# 
   443  0016                     	;# 
   444  0016                     	;# 
   445  0017                     	;# 
   446  0018                     	;# 
   447  0019                     	;# 
   448  0019                     	;# 
   449  001A                     	;# 
   450  001B                     	;# 
   451  001C                     	;# 
   452  001D                     	;# 
   453  001E                     	;# 
   454  001F                     	;# 
   455  008C                     	;# 
   456  008D                     	;# 
   457  008E                     	;# 
   458  0090                     	;# 
   459  0091                     	;# 
   460  0092                     	;# 
   461  0093                     	;# 
   462  0094                     	;# 
   463  0097                     	;# 
   464  009B                     	;# 
   465  009B                     	;# 
   466  009C                     	;# 
   467  009D                     	;# 
   468  009E                     	;# 
   469  009F                     	;# 
   470  010C                     	;# 
   471  010D                     	;# 
   472  010E                     	;# 
   473  0111                     	;# 
   474  0112                     	;# 
   475  0113                     	;# 
   476  0114                     	;# 
   477  0115                     	;# 
   478  0116                     	;# 
   479  0117                     	;# 
   480  0118                     	;# 
   481  0119                     	;# 
   482  018C                     	;# 
   483  018D                     	;# 
   484  018E                     	;# 
   485  0197                     	;# 
   486  0199                     	;# 
   487  0199                     	;# 
   488  0199                     	;# 
   489  019A                     	;# 
   490  019A                     	;# 
   491  019A                     	;# 
   492  019B                     	;# 
   493  019B                     	;# 
   494  019B                     	;# 
   495  019B                     	;# 
   496  019B                     	;# 
   497  019C                     	;# 
   498  019C                     	;# 
   499  019C                     	;# 
   500  019D                     	;# 
   501  019D                     	;# 
   502  019D                     	;# 
   503  019E                     	;# 
   504  019E                     	;# 
   505  019E                     	;# 
   506  019F                     	;# 
   507  019F                     	;# 
   508  019F                     	;# 
   509  019F                     	;# 
   510  019F                     	;# 
   511  020C                     	;# 
   512  020D                     	;# 
   513  020E                     	;# 
   514  0211                     	;# 
   515  0211                     	;# 
   516  0212                     	;# 
   517  0212                     	;# 
   518  0213                     	;# 
   519  0213                     	;# 
   520  0214                     	;# 
   521  0214                     	;# 
   522  0215                     	;# 
   523  0215                     	;# 
   524  0215                     	;# 
   525  0215                     	;# 
   526  0216                     	;# 
   527  0216                     	;# 
   528  0217                     	;# 
   529  0217                     	;# 
   530  0219                     	;# 
   531  021A                     	;# 
   532  021B                     	;# 
   533  021C                     	;# 
   534  021D                     	;# 
   535  021D                     	;# 
   536  021E                     	;# 
   537  021F                     	;# 
   538  028C                     	;# 
   539  028D                     	;# 
   540  028E                     	;# 
   541  0291                     	;# 
   542  0291                     	;# 
   543  0292                     	;# 
   544  0293                     	;# 
   545  0294                     	;# 
   546  0295                     	;# 
   547  0295                     	;# 
   548  0296                     	;# 
   549  0297                     	;# 
   550  0298                     	;# 
   551  029F                     	;# 
   552  030C                     	;# 
   553  030D                     	;# 
   554  030E                     	;# 
   555  0311                     	;# 
   556  0311                     	;# 
   557  0312                     	;# 
   558  0313                     	;# 
   559  0314                     	;# 
   560  0315                     	;# 
   561  0315                     	;# 
   562  0316                     	;# 
   563  0317                     	;# 
   564  0318                     	;# 
   565  038C                     	;# 
   566  038D                     	;# 
   567  038E                     	;# 
   568  0391                     	;# 
   569  0392                     	;# 
   570  0393                     	;# 
   571  0394                     	;# 
   572  0395                     	;# 
   573  0396                     	;# 
   574  0397                     	;# 
   575  0398                     	;# 
   576  0399                     	;# 
   577  039A                     	;# 
   578  039C                     	;# 
   579  039D                     	;# 
   580  039E                     	;# 
   581  039F                     	;# 
   582  0411                     	;# 
   583  0411                     	;# 
   584  0412                     	;# 
   585  0413                     	;# 
   586  0414                     	;# 
   587  0415                     	;# 
   588  0416                     	;# 
   589  0417                     	;# 
   590  0418                     	;# 
   591  0418                     	;# 
   592  0419                     	;# 
   593  041A                     	;# 
   594  041B                     	;# 
   595  041C                     	;# 
   596  041D                     	;# 
   597  041E                     	;# 
   598  041F                     	;# 
   599  0498                     	;# 
   600  0498                     	;# 
   601  0499                     	;# 
   602  049A                     	;# 
   603  049B                     	;# 
   604  049B                     	;# 
   605  049C                     	;# 
   606  049D                     	;# 
   607  049E                     	;# 
   608  049F                     	;# 
   609  0617                     	;# 
   610  0618                     	;# 
   611  0619                     	;# 
   612  0619                     	;# 
   613  061A                     	;# 
   614  061B                     	;# 
   615  061C                     	;# 
   616  061C                     	;# 
   617  061F                     	;# 
   618  0691                     	;# 
   619  0692                     	;# 
   620  0693                     	;# 
   621  0694                     	;# 
   622  0695                     	;# 
   623  0696                     	;# 
   624  0697                     	;# 
   625  0698                     	;# 
   626  0699                     	;# 
   627  0711                     	;# 
   628  0712                     	;# 
   629  0713                     	;# 
   630  0714                     	;# 
   631  0715                     	;# 
   632  0716                     	;# 
   633  0717                     	;# 
   634  0718                     	;# 
   635  0719                     	;# 
   636  0891                     	;# 
   637  0891                     	;# 
   638  0891                     	;# 
   639  0891                     	;# 
   640  0891                     	;# 
   641  0891                     	;# 
   642  0892                     	;# 
   643  0892                     	;# 
   644  0892                     	;# 
   645  0893                     	;# 
   646  0893                     	;# 
   647  0893                     	;# 
   648  0893                     	;# 
   649  0893                     	;# 
   650  0893                     	;# 
   651  0894                     	;# 
   652  0894                     	;# 
   653  0894                     	;# 
   654  0895                     	;# 
   655  0895                     	;# 
   656  0895                     	;# 
   657  0896                     	;# 
   658  0896                     	;# 
   659  0896                     	;# 
   660  089B                     	;# 
   661  0911                     	;# 
   662  0912                     	;# 
   663  0913                     	;# 
   664  0914                     	;# 
   665  0915                     	;# 
   666  0916                     	;# 
   667  0918                     	;# 
   668  0919                     	;# 
   669  091A                     	;# 
   670  091B                     	;# 
   671  091C                     	;# 
   672  091D                     	;# 
   673  091E                     	;# 
   674  091F                     	;# 
   675  0E0F                     	;# 
   676  0E10                     	;# 
   677  0E11                     	;# 
   678  0E12                     	;# 
   679  0E13                     	;# 
   680  0E14                     	;# 
   681  0E15                     	;# 
   682  0E16                     	;# 
   683  0E17                     	;# 
   684  0E18                     	;# 
   685  0E19                     	;# 
   686  0E1A                     	;# 
   687  0E1B                     	;# 
   688  0E1C                     	;# 
   689  0E1D                     	;# 
   690  0E1E                     	;# 
   691  0E1F                     	;# 
   692  0E20                     	;# 
   693  0E21                     	;# 
   694  0E22                     	;# 
   695  0E24                     	;# 
   696  0E25                     	;# 
   697  0E28                     	;# 
   698  0E29                     	;# 
   699  0E2A                     	;# 
   700  0E2B                     	;# 
   701  0E2C                     	;# 
   702  0E2D                     	;# 
   703  0E2E                     	;# 
   704  0E2F                     	;# 
   705  0E90                     	;# 
   706  0E91                     	;# 
   707  0E92                     	;# 
   708  0E94                     	;# 
   709  0E95                     	;# 
   710  0E9C                     	;# 
   711  0E9D                     	;# 
   712  0E9E                     	;# 
   713  0E9F                     	;# 
   714  0EA0                     	;# 
   715  0EA1                     	;# 
   716  0EA2                     	;# 
   717  0EA3                     	;# 
   718  0EA4                     	;# 
   719  0EA5                     	;# 
   720  0EA6                     	;# 
   721  0EA7                     	;# 
   722  0F0F                     	;# 
   723  0F10                     	;# 
   724  0F11                     	;# 
   725  0F12                     	;# 
   726  0F13                     	;# 
   727  0F14                     	;# 
   728  0F15                     	;# 
   729  0F16                     	;# 
   730  0F17                     	;# 
   731  0F18                     	;# 
   732  0F19                     	;# 
   733  0F1A                     	;# 
   734  0F1B                     	;# 
   735  0F1C                     	;# 
   736  0F1D                     	;# 
   737  0F1E                     	;# 
   738  0F1F                     	;# 
   739  0F20                     	;# 
   740  0F21                     	;# 
   741  0F22                     	;# 
   742  0F23                     	;# 
   743  0F24                     	;# 
   744  0F25                     	;# 
   745  0F26                     	;# 
   746  0F27                     	;# 
   747  0F28                     	;# 
   748  0F29                     	;# 
   749  0F2A                     	;# 
   750  0F2B                     	;# 
   751  0F2C                     	;# 
   752  0F2D                     	;# 
   753  0F2E                     	;# 
   754  0F2F                     	;# 
   755  0F30                     	;# 
   756  0F31                     	;# 
   757  0F32                     	;# 
   758  0F33                     	;# 
   759  0F34                     	;# 
   760  0F35                     	;# 
   761  0F36                     	;# 
   762  0F37                     	;# 
   763  0FE4                     	;# 
   764  0FE5                     	;# 
   765  0FE6                     	;# 
   766  0FE7                     	;# 
   767  0FE8                     	;# 
   768  0FE9                     	;# 
   769  0FEA                     	;# 
   770  0FEB                     	;# 
   771  0FED                     	;# 
   772  0FEE                     	;# 
   773  0FEF                     	;# 
   774  0000                     	;# 
   775  0001                     	;# 
   776  0002                     	;# 
   777  0003                     	;# 
   778  0004                     	;# 
   779  0005                     	;# 
   780  0006                     	;# 
   781  0007                     	;# 
   782  0008                     	;# 
   783  0009                     	;# 
   784  000A                     	;# 
   785  000B                     	;# 
   786  000C                     	;# 
   787  000D                     	;# 
   788  000E                     	;# 
   789  0010                     	;# 
   790  0011                     	;# 
   791  0012                     	;# 
   792  0013                     	;# 
   793  0014                     	;# 
   794  0015                     	;# 
   795  0015                     	;# 
   796  0016                     	;# 
   797  0016                     	;# 
   798  0017                     	;# 
   799  0018                     	;# 
   800  0019                     	;# 
   801  0019                     	;# 
   802  001A                     	;# 
   803  001B                     	;# 
   804  001C                     	;# 
   805  001D                     	;# 
   806  001E                     	;# 
   807  001F                     	;# 
   808  008C                     	;# 
   809  008D                     	;# 
   810  008E                     	;# 
   811  0090                     	;# 
   812  0091                     	;# 
   813  0092                     	;# 
   814  0093                     	;# 
   815  0094                     	;# 
   816  0097                     	;# 
   817  009B                     	;# 
   818  009B                     	;# 
   819  009C                     	;# 
   820  009D                     	;# 
   821  009E                     	;# 
   822  009F                     	;# 
   823  010C                     	;# 
   824  010D                     	;# 
   825  010E                     	;# 
   826  0111                     	;# 
   827  0112                     	;# 
   828  0113                     	;# 
   829  0114                     	;# 
   830  0115                     	;# 
   831  0116                     	;# 
   832  0117                     	;# 
   833  0118                     	;# 
   834  0119                     	;# 
   835  018C                     	;# 
   836  018D                     	;# 
   837  018E                     	;# 
   838  0197                     	;# 
   839  0199                     	;# 
   840  0199                     	;# 
   841  0199                     	;# 
   842  019A                     	;# 
   843  019A                     	;# 
   844  019A                     	;# 
   845  019B                     	;# 
   846  019B                     	;# 
   847  019B                     	;# 
   848  019B                     	;# 
   849  019B                     	;# 
   850  019C                     	;# 
   851  019C                     	;# 
   852  019C                     	;# 
   853  019D                     	;# 
   854  019D                     	;# 
   855  019D                     	;# 
   856  019E                     	;# 
   857  019E                     	;# 
   858  019E                     	;# 
   859  019F                     	;# 
   860  019F                     	;# 
   861  019F                     	;# 
   862  019F                     	;# 
   863  019F                     	;# 
   864  020C                     	;# 
   865  020D                     	;# 
   866  020E                     	;# 
   867  0211                     	;# 
   868  0211                     	;# 
   869  0212                     	;# 
   870  0212                     	;# 
   871  0213                     	;# 
   872  0213                     	;# 
   873  0214                     	;# 
   874  0214                     	;# 
   875  0215                     	;# 
   876  0215                     	;# 
   877  0215                     	;# 
   878  0215                     	;# 
   879  0216                     	;# 
   880  0216                     	;# 
   881  0217                     	;# 
   882  0217                     	;# 
   883  0219                     	;# 
   884  021A                     	;# 
   885  021B                     	;# 
   886  021C                     	;# 
   887  021D                     	;# 
   888  021D                     	;# 
   889  021E                     	;# 
   890  021F                     	;# 
   891  028C                     	;# 
   892  028D                     	;# 
   893  028E                     	;# 
   894  0291                     	;# 
   895  0291                     	;# 
   896  0292                     	;# 
   897  0293                     	;# 
   898  0294                     	;# 
   899  0295                     	;# 
   900  0295                     	;# 
   901  0296                     	;# 
   902  0297                     	;# 
   903  0298                     	;# 
   904  029F                     	;# 
   905  030C                     	;# 
   906  030D                     	;# 
   907  030E                     	;# 
   908  0311                     	;# 
   909  0311                     	;# 
   910  0312                     	;# 
   911  0313                     	;# 
   912  0314                     	;# 
   913  0315                     	;# 
   914  0315                     	;# 
   915  0316                     	;# 
   916  0317                     	;# 
   917  0318                     	;# 
   918  038C                     	;# 
   919  038D                     	;# 
   920  038E                     	;# 
   921  0391                     	;# 
   922  0392                     	;# 
   923  0393                     	;# 
   924  0394                     	;# 
   925  0395                     	;# 
   926  0396                     	;# 
   927  0397                     	;# 
   928  0398                     	;# 
   929  0399                     	;# 
   930  039A                     	;# 
   931  039C                     	;# 
   932  039D                     	;# 
   933  039E                     	;# 
   934  039F                     	;# 
   935  0411                     	;# 
   936  0411                     	;# 
   937  0412                     	;# 
   938  0413                     	;# 
   939  0414                     	;# 
   940  0415                     	;# 
   941  0416                     	;# 
   942  0417                     	;# 
   943  0418                     	;# 
   944  0418                     	;# 
   945  0419                     	;# 
   946  041A                     	;# 
   947  041B                     	;# 
   948  041C                     	;# 
   949  041D                     	;# 
   950  041E                     	;# 
   951  041F                     	;# 
   952  0498                     	;# 
   953  0498                     	;# 
   954  0499                     	;# 
   955  049A                     	;# 
   956  049B                     	;# 
   957  049B                     	;# 
   958  049C                     	;# 
   959  049D                     	;# 
   960  049E                     	;# 
   961  049F                     	;# 
   962  0617                     	;# 
   963  0618                     	;# 
   964  0619                     	;# 
   965  0619                     	;# 
   966  061A                     	;# 
   967  061B                     	;# 
   968  061C                     	;# 
   969  061C                     	;# 
   970  061F                     	;# 
   971  0691                     	;# 
   972  0692                     	;# 
   973  0693                     	;# 
   974  0694                     	;# 
   975  0695                     	;# 
   976  0696                     	;# 
   977  0697                     	;# 
   978  0698                     	;# 
   979  0699                     	;# 
   980  0711                     	;# 
   981  0712                     	;# 
   982  0713                     	;# 
   983  0714                     	;# 
   984  0715                     	;# 
   985  0716                     	;# 
   986  0717                     	;# 
   987  0718                     	;# 
   988  0719                     	;# 
   989  0891                     	;# 
   990  0891                     	;# 
   991  0891                     	;# 
   992  0891                     	;# 
   993  0891                     	;# 
   994  0891                     	;# 
   995  0892                     	;# 
   996  0892                     	;# 
   997  0892                     	;# 
   998  0893                     	;# 
   999  0893                     	;# 
  1000  0893                     	;# 
  1001  0893                     	;# 
  1002  0893                     	;# 
  1003  0893                     	;# 
  1004  0894                     	;# 
  1005  0894                     	;# 
  1006  0894                     	;# 
  1007  0895                     	;# 
  1008  0895                     	;# 
  1009  0895                     	;# 
  1010  0896                     	;# 
  1011  0896                     	;# 
  1012  0896                     	;# 
  1013  089B                     	;# 
  1014  0911                     	;# 
  1015  0912                     	;# 
  1016  0913                     	;# 
  1017  0914                     	;# 
  1018  0915                     	;# 
  1019  0916                     	;# 
  1020  0918                     	;# 
  1021  0919                     	;# 
  1022  091A                     	;# 
  1023  091B                     	;# 
  1024  091C                     	;# 
  1025  091D                     	;# 
  1026  091E                     	;# 
  1027  091F                     	;# 
  1028  0E0F                     	;# 
  1029  0E10                     	;# 
  1030  0E11                     	;# 
  1031  0E12                     	;# 
  1032  0E13                     	;# 
  1033  0E14                     	;# 
  1034  0E15                     	;# 
  1035  0E16                     	;# 
  1036  0E17                     	;# 
  1037  0E18                     	;# 
  1038  0E19                     	;# 
  1039  0E1A                     	;# 
  1040  0E1B                     	;# 
  1041  0E1C                     	;# 
  1042  0E1D                     	;# 
  1043  0E1E                     	;# 
  1044  0E1F                     	;# 
  1045  0E20                     	;# 
  1046  0E21                     	;# 
  1047  0E22                     	;# 
  1048  0E24                     	;# 
  1049  0E25                     	;# 
  1050  0E28                     	;# 
  1051  0E29                     	;# 
  1052  0E2A                     	;# 
  1053  0E2B                     	;# 
  1054  0E2C                     	;# 
  1055  0E2D                     	;# 
  1056  0E2E                     	;# 
  1057  0E2F                     	;# 
  1058  0E90                     	;# 
  1059  0E91                     	;# 
  1060  0E92                     	;# 
  1061  0E94                     	;# 
  1062  0E95                     	;# 
  1063  0E9C                     	;# 
  1064  0E9D                     	;# 
  1065  0E9E                     	;# 
  1066  0E9F                     	;# 
  1067  0EA0                     	;# 
  1068  0EA1                     	;# 
  1069  0EA2                     	;# 
  1070  0EA3                     	;# 
  1071  0EA4                     	;# 
  1072  0EA5                     	;# 
  1073  0EA6                     	;# 
  1074  0EA7                     	;# 
  1075  0F0F                     	;# 
  1076  0F10                     	;# 
  1077  0F11                     	;# 
  1078  0F12                     	;# 
  1079  0F13                     	;# 
  1080  0F14                     	;# 
  1081  0F15                     	;# 
  1082  0F16                     	;# 
  1083  0F17                     	;# 
  1084  0F18                     	;# 
  1085  0F19                     	;# 
  1086  0F1A                     	;# 
  1087  0F1B                     	;# 
  1088  0F1C                     	;# 
  1089  0F1D                     	;# 
  1090  0F1E                     	;# 
  1091  0F1F                     	;# 
  1092  0F20                     	;# 
  1093  0F21                     	;# 
  1094  0F22                     	;# 
  1095  0F23                     	;# 
  1096  0F24                     	;# 
  1097  0F25                     	;# 
  1098  0F26                     	;# 
  1099  0F27                     	;# 
  1100  0F28                     	;# 
  1101  0F29                     	;# 
  1102  0F2A                     	;# 
  1103  0F2B                     	;# 
  1104  0F2C                     	;# 
  1105  0F2D                     	;# 
  1106  0F2E                     	;# 
  1107  0F2F                     	;# 
  1108  0F30                     	;# 
  1109  0F31                     	;# 
  1110  0F32                     	;# 
  1111  0F33                     	;# 
  1112  0F34                     	;# 
  1113  0F35                     	;# 
  1114  0F36                     	;# 
  1115  0F37                     	;# 
  1116  0FE4                     	;# 
  1117  0FE5                     	;# 
  1118  0FE6                     	;# 
  1119  0FE7                     	;# 
  1120  0FE8                     	;# 
  1121  0FE9                     	;# 
  1122  0FEA                     	;# 
  1123  0FEB                     	;# 
  1124  0FED                     	;# 
  1125  0FEE                     	;# 
  1126  0FEF                     	;# 
  1127  0000                     	;# 
  1128  0001                     	;# 
  1129  0002                     	;# 
  1130  0003                     	;# 
  1131  0004                     	;# 
  1132  0005                     	;# 
  1133  0006                     	;# 
  1134  0007                     	;# 
  1135  0008                     	;# 
  1136  0009                     	;# 
  1137  000A                     	;# 
  1138  000B                     	;# 
  1139  000C                     	;# 
  1140  000D                     	;# 
  1141  000E                     	;# 
  1142  0010                     	;# 
  1143  0011                     	;# 
  1144  0012                     	;# 
  1145  0013                     	;# 
  1146  0014                     	;# 
  1147  0015                     	;# 
  1148  0015                     	;# 
  1149  0016                     	;# 
  1150  0016                     	;# 
  1151  0017                     	;# 
  1152  0018                     	;# 
  1153  0019                     	;# 
  1154  0019                     	;# 
  1155  001A                     	;# 
  1156  001B                     	;# 
  1157  001C                     	;# 
  1158  001D                     	;# 
  1159  001E                     	;# 
  1160  001F                     	;# 
  1161  008C                     	;# 
  1162  008D                     	;# 
  1163  008E                     	;# 
  1164  0090                     	;# 
  1165  0091                     	;# 
  1166  0092                     	;# 
  1167  0093                     	;# 
  1168  0094                     	;# 
  1169  0097                     	;# 
  1170  009B                     	;# 
  1171  009B                     	;# 
  1172  009C                     	;# 
  1173  009D                     	;# 
  1174  009E                     	;# 
  1175  009F                     	;# 
  1176  010C                     	;# 
  1177  010D                     	;# 
  1178  010E                     	;# 
  1179  0111                     	;# 
  1180  0112                     	;# 
  1181  0113                     	;# 
  1182  0114                     	;# 
  1183  0115                     	;# 
  1184  0116                     	;# 
  1185  0117                     	;# 
  1186  0118                     	;# 
  1187  0119                     	;# 
  1188  018C                     	;# 
  1189  018D                     	;# 
  1190  018E                     	;# 
  1191  0197                     	;# 
  1192  0199                     	;# 
  1193  0199                     	;# 
  1194  0199                     	;# 
  1195  019A                     	;# 
  1196  019A                     	;# 
  1197  019A                     	;# 
  1198  019B                     	;# 
  1199  019B                     	;# 
  1200  019B                     	;# 
  1201  019B                     	;# 
  1202  019B                     	;# 
  1203  019C                     	;# 
  1204  019C                     	;# 
  1205  019C                     	;# 
  1206  019D                     	;# 
  1207  019D                     	;# 
  1208  019D                     	;# 
  1209  019E                     	;# 
  1210  019E                     	;# 
  1211  019E                     	;# 
  1212  019F                     	;# 
  1213  019F                     	;# 
  1214  019F                     	;# 
  1215  019F                     	;# 
  1216  019F                     	;# 
  1217  020C                     	;# 
  1218  020D                     	;# 
  1219  020E                     	;# 
  1220  0211                     	;# 
  1221  0211                     	;# 
  1222  0212                     	;# 
  1223  0212                     	;# 
  1224  0213                     	;# 
  1225  0213                     	;# 
  1226  0214                     	;# 
  1227  0214                     	;# 
  1228  0215                     	;# 
  1229  0215                     	;# 
  1230  0215                     	;# 
  1231  0215                     	;# 
  1232  0216                     	;# 
  1233  0216                     	;# 
  1234  0217                     	;# 
  1235  0217                     	;# 
  1236  0219                     	;# 
  1237  021A                     	;# 
  1238  021B                     	;# 
  1239  021C                     	;# 
  1240  021D                     	;# 
  1241  021D                     	;# 
  1242  021E                     	;# 
  1243  021F                     	;# 
  1244  028C                     	;# 
  1245  028D                     	;# 
  1246  028E                     	;# 
  1247  0291                     	;# 
  1248  0291                     	;# 
  1249  0292                     	;# 
  1250  0293                     	;# 
  1251  0294                     	;# 
  1252  0295                     	;# 
  1253  0295                     	;# 
  1254  0296                     	;# 
  1255  0297                     	;# 
  1256  0298                     	;# 
  1257  029F                     	;# 
  1258  030C                     	;# 
  1259  030D                     	;# 
  1260  030E                     	;# 
  1261  0311                     	;# 
  1262  0311                     	;# 
  1263  0312                     	;# 
  1264  0313                     	;# 
  1265  0314                     	;# 
  1266  0315                     	;# 
  1267  0315                     	;# 
  1268  0316                     	;# 
  1269  0317                     	;# 
  1270  0318                     	;# 
  1271  038C                     	;# 
  1272  038D                     	;# 
  1273  038E                     	;# 
  1274  0391                     	;# 
  1275  0392                     	;# 
  1276  0393                     	;# 
  1277  0394                     	;# 
  1278  0395                     	;# 
  1279  0396                     	;# 
  1280  0397                     	;# 
  1281  0398                     	;# 
  1282  0399                     	;# 
  1283  039A                     	;# 
  1284  039C                     	;# 
  1285  039D                     	;# 
  1286  039E                     	;# 
  1287  039F                     	;# 
  1288  0411                     	;# 
  1289  0411                     	;# 
  1290  0412                     	;# 
  1291  0413                     	;# 
  1292  0414                     	;# 
  1293  0415                     	;# 
  1294  0416                     	;# 
  1295  0417                     	;# 
  1296  0418                     	;# 
  1297  0418                     	;# 
  1298  0419                     	;# 
  1299  041A                     	;# 
  1300  041B                     	;# 
  1301  041C                     	;# 
  1302  041D                     	;# 
  1303  041E                     	;# 
  1304  041F                     	;# 
  1305  0498                     	;# 
  1306  0498                     	;# 
  1307  0499                     	;# 
  1308  049A                     	;# 
  1309  049B                     	;# 
  1310  049B                     	;# 
  1311  049C                     	;# 
  1312  049D                     	;# 
  1313  049E                     	;# 
  1314  049F                     	;# 
  1315  0617                     	;# 
  1316  0618                     	;# 
  1317  0619                     	;# 
  1318  0619                     	;# 
  1319  061A                     	;# 
  1320  061B                     	;# 
  1321  061C                     	;# 
  1322  061C                     	;# 
  1323  061F                     	;# 
  1324  0691                     	;# 
  1325  0692                     	;# 
  1326  0693                     	;# 
  1327  0694                     	;# 
  1328  0695                     	;# 
  1329  0696                     	;# 
  1330  0697                     	;# 
  1331  0698                     	;# 
  1332  0699                     	;# 
  1333  0711                     	;# 
  1334  0712                     	;# 
  1335  0713                     	;# 
  1336  0714                     	;# 
  1337  0715                     	;# 
  1338  0716                     	;# 
  1339  0717                     	;# 
  1340  0718                     	;# 
  1341  0719                     	;# 
  1342  0891                     	;# 
  1343  0891                     	;# 
  1344  0891                     	;# 
  1345  0891                     	;# 
  1346  0891                     	;# 
  1347  0891                     	;# 
  1348  0892                     	;# 
  1349  0892                     	;# 
  1350  0892                     	;# 
  1351  0893                     	;# 
  1352  0893                     	;# 
  1353  0893                     	;# 
  1354  0893                     	;# 
  1355  0893                     	;# 
  1356  0893                     	;# 
  1357  0894                     	;# 
  1358  0894                     	;# 
  1359  0894                     	;# 
  1360  0895                     	;# 
  1361  0895                     	;# 
  1362  0895                     	;# 
  1363  0896                     	;# 
  1364  0896                     	;# 
  1365  0896                     	;# 
  1366  089B                     	;# 
  1367  0911                     	;# 
  1368  0912                     	;# 
  1369  0913                     	;# 
  1370  0914                     	;# 
  1371  0915                     	;# 
  1372  0916                     	;# 
  1373  0918                     	;# 
  1374  0919                     	;# 
  1375  091A                     	;# 
  1376  091B                     	;# 
  1377  091C                     	;# 
  1378  091D                     	;# 
  1379  091E                     	;# 
  1380  091F                     	;# 
  1381  0E0F                     	;# 
  1382  0E10                     	;# 
  1383  0E11                     	;# 
  1384  0E12                     	;# 
  1385  0E13                     	;# 
  1386  0E14                     	;# 
  1387  0E15                     	;# 
  1388  0E16                     	;# 
  1389  0E17                     	;# 
  1390  0E18                     	;# 
  1391  0E19                     	;# 
  1392  0E1A                     	;# 
  1393  0E1B                     	;# 
  1394  0E1C                     	;# 
  1395  0E1D                     	;# 
  1396  0E1E                     	;# 
  1397  0E1F                     	;# 
  1398  0E20                     	;# 
  1399  0E21                     	;# 
  1400  0E22                     	;# 
  1401  0E24                     	;# 
  1402  0E25                     	;# 
  1403  0E28                     	;# 
  1404  0E29                     	;# 
  1405  0E2A                     	;# 
  1406  0E2B                     	;# 
  1407  0E2C                     	;# 
  1408  0E2D                     	;# 
  1409  0E2E                     	;# 
  1410  0E2F                     	;# 
  1411  0E90                     	;# 
  1412  0E91                     	;# 
  1413  0E92                     	;# 
  1414  0E94                     	;# 
  1415  0E95                     	;# 
  1416  0E9C                     	;# 
  1417  0E9D                     	;# 
  1418  0E9E                     	;# 
  1419  0E9F                     	;# 
  1420  0EA0                     	;# 
  1421  0EA1                     	;# 
  1422  0EA2                     	;# 
  1423  0EA3                     	;# 
  1424  0EA4                     	;# 
  1425  0EA5                     	;# 
  1426  0EA6                     	;# 
  1427  0EA7                     	;# 
  1428  0F0F                     	;# 
  1429  0F10                     	;# 
  1430  0F11                     	;# 
  1431  0F12                     	;# 
  1432  0F13                     	;# 
  1433  0F14                     	;# 
  1434  0F15                     	;# 
  1435  0F16                     	;# 
  1436  0F17                     	;# 
  1437  0F18                     	;# 
  1438  0F19                     	;# 
  1439  0F1A                     	;# 
  1440  0F1B                     	;# 
  1441  0F1C                     	;# 
  1442  0F1D                     	;# 
  1443  0F1E                     	;# 
  1444  0F1F                     	;# 
  1445  0F20                     	;# 
  1446  0F21                     	;# 
  1447  0F22                     	;# 
  1448  0F23                     	;# 
  1449  0F24                     	;# 
  1450  0F25                     	;# 
  1451  0F26                     	;# 
  1452  0F27                     	;# 
  1453  0F28                     	;# 
  1454  0F29                     	;# 
  1455  0F2A                     	;# 
  1456  0F2B                     	;# 
  1457  0F2C                     	;# 
  1458  0F2D                     	;# 
  1459  0F2E                     	;# 
  1460  0F2F                     	;# 
  1461  0F30                     	;# 
  1462  0F31                     	;# 
  1463  0F32                     	;# 
  1464  0F33                     	;# 
  1465  0F34                     	;# 
  1466  0F35                     	;# 
  1467  0F36                     	;# 
  1468  0F37                     	;# 
  1469  0FE4                     	;# 
  1470  0FE5                     	;# 
  1471  0FE6                     	;# 
  1472  0FE7                     	;# 
  1473  0FE8                     	;# 
  1474  0FE9                     	;# 
  1475  0FEA                     	;# 
  1476  0FEB                     	;# 
  1477  0FED                     	;# 
  1478  0FEE                     	;# 
  1479  0FEF                     	;# 
  1480  0000                     	;# 
  1481  0001                     	;# 
  1482  0002                     	;# 
  1483  0003                     	;# 
  1484  0004                     	;# 
  1485  0005                     	;# 
  1486  0006                     	;# 
  1487  0007                     	;# 
  1488  0008                     	;# 
  1489  0009                     	;# 
  1490  000A                     	;# 
  1491  000B                     	;# 
  1492  000C                     	;# 
  1493  000D                     	;# 
  1494  000E                     	;# 
  1495  0010                     	;# 
  1496  0011                     	;# 
  1497  0012                     	;# 
  1498  0013                     	;# 
  1499  0014                     	;# 
  1500  0015                     	;# 
  1501  0015                     	;# 
  1502  0016                     	;# 
  1503  0016                     	;# 
  1504  0017                     	;# 
  1505  0018                     	;# 
  1506  0019                     	;# 
  1507  0019                     	;# 
  1508  001A                     	;# 
  1509  001B                     	;# 
  1510  001C                     	;# 
  1511  001D                     	;# 
  1512  001E                     	;# 
  1513  001F                     	;# 
  1514  008C                     	;# 
  1515  008D                     	;# 
  1516  008E                     	;# 
  1517  0090                     	;# 
  1518  0091                     	;# 
  1519  0092                     	;# 
  1520  0093                     	;# 
  1521  0094                     	;# 
  1522  0097                     	;# 
  1523  009B                     	;# 
  1524  009B                     	;# 
  1525  009C                     	;# 
  1526  009D                     	;# 
  1527  009E                     	;# 
  1528  009F                     	;# 
  1529  010C                     	;# 
  1530  010D                     	;# 
  1531  010E                     	;# 
  1532  0111                     	;# 
  1533  0112                     	;# 
  1534  0113                     	;# 
  1535  0114                     	;# 
  1536  0115                     	;# 
  1537  0116                     	;# 
  1538  0117                     	;# 
  1539  0118                     	;# 
  1540  0119                     	;# 
  1541  018C                     	;# 
  1542  018D                     	;# 
  1543  018E                     	;# 
  1544  0197                     	;# 
  1545  0199                     	;# 
  1546  0199                     	;# 
  1547  0199                     	;# 
  1548  019A                     	;# 
  1549  019A                     	;# 
  1550  019A                     	;# 
  1551  019B                     	;# 
  1552  019B                     	;# 
  1553  019B                     	;# 
  1554  019B                     	;# 
  1555  019B                     	;# 
  1556  019C                     	;# 
  1557  019C                     	;# 
  1558  019C                     	;# 
  1559  019D                     	;# 
  1560  019D                     	;# 
  1561  019D                     	;# 
  1562  019E                     	;# 
  1563  019E                     	;# 
  1564  019E                     	;# 
  1565  019F                     	;# 
  1566  019F                     	;# 
  1567  019F                     	;# 
  1568  019F                     	;# 
  1569  019F                     	;# 
  1570  020C                     	;# 
  1571  020D                     	;# 
  1572  020E                     	;# 
  1573  0211                     	;# 
  1574  0211                     	;# 
  1575  0212                     	;# 
  1576  0212                     	;# 
  1577  0213                     	;# 
  1578  0213                     	;# 
  1579  0214                     	;# 
  1580  0214                     	;# 
  1581  0215                     	;# 
  1582  0215                     	;# 
  1583  0215                     	;# 
  1584  0215                     	;# 
  1585  0216                     	;# 
  1586  0216                     	;# 
  1587  0217                     	;# 
  1588  0217                     	;# 
  1589  0219                     	;# 
  1590  021A                     	;# 
  1591  021B                     	;# 
  1592  021C                     	;# 
  1593  021D                     	;# 
  1594  021D                     	;# 
  1595  021E                     	;# 
  1596  021F                     	;# 
  1597  028C                     	;# 
  1598  028D                     	;# 
  1599  028E                     	;# 
  1600  0291                     	;# 
  1601  0291                     	;# 
  1602  0292                     	;# 
  1603  0293                     	;# 
  1604  0294                     	;# 
  1605  0295                     	;# 
  1606  0295                     	;# 
  1607  0296                     	;# 
  1608  0297                     	;# 
  1609  0298                     	;# 
  1610  029F                     	;# 
  1611  030C                     	;# 
  1612  030D                     	;# 
  1613  030E                     	;# 
  1614  0311                     	;# 
  1615  0311                     	;# 
  1616  0312                     	;# 
  1617  0313                     	;# 
  1618  0314                     	;# 
  1619  0315                     	;# 
  1620  0315                     	;# 
  1621  0316                     	;# 
  1622  0317                     	;# 
  1623  0318                     	;# 
  1624  038C                     	;# 
  1625  038D                     	;# 
  1626  038E                     	;# 
  1627  0391                     	;# 
  1628  0392                     	;# 
  1629  0393                     	;# 
  1630  0394                     	;# 
  1631  0395                     	;# 
  1632  0396                     	;# 
  1633  0397                     	;# 
  1634  0398                     	;# 
  1635  0399                     	;# 
  1636  039A                     	;# 
  1637  039C                     	;# 
  1638  039D                     	;# 
  1639  039E                     	;# 
  1640  039F                     	;# 
  1641  0411                     	;# 
  1642  0411                     	;# 
  1643  0412                     	;# 
  1644  0413                     	;# 
  1645  0414                     	;# 
  1646  0415                     	;# 
  1647  0416                     	;# 
  1648  0417                     	;# 
  1649  0418                     	;# 
  1650  0418                     	;# 
  1651  0419                     	;# 
  1652  041A                     	;# 
  1653  041B                     	;# 
  1654  041C                     	;# 
  1655  041D                     	;# 
  1656  041E                     	;# 
  1657  041F                     	;# 
  1658  0498                     	;# 
  1659  0498                     	;# 
  1660  0499                     	;# 
  1661  049A                     	;# 
  1662  049B                     	;# 
  1663  049B                     	;# 
  1664  049C                     	;# 
  1665  049D                     	;# 
  1666  049E                     	;# 
  1667  049F                     	;# 
  1668  0617                     	;# 
  1669  0618                     	;# 
  1670  0619                     	;# 
  1671  0619                     	;# 
  1672  061A                     	;# 
  1673  061B                     	;# 
  1674  061C                     	;# 
  1675  061C                     	;# 
  1676  061F                     	;# 
  1677  0691                     	;# 
  1678  0692                     	;# 
  1679  0693                     	;# 
  1680  0694                     	;# 
  1681  0695                     	;# 
  1682  0696                     	;# 
  1683  0697                     	;# 
  1684  0698                     	;# 
  1685  0699                     	;# 
  1686  0711                     	;# 
  1687  0712                     	;# 
  1688  0713                     	;# 
  1689  0714                     	;# 
  1690  0715                     	;# 
  1691  0716                     	;# 
  1692  0717                     	;# 
  1693  0718                     	;# 
  1694  0719                     	;# 
  1695  0891                     	;# 
  1696  0891                     	;# 
  1697  0891                     	;# 
  1698  0891                     	;# 
  1699  0891                     	;# 
  1700  0891                     	;# 
  1701  0892                     	;# 
  1702  0892                     	;# 
  1703  0892                     	;# 
  1704  0893                     	;# 
  1705  0893                     	;# 
  1706  0893                     	;# 
  1707  0893                     	;# 
  1708  0893                     	;# 
  1709  0893                     	;# 
  1710  0894                     	;# 
  1711  0894                     	;# 
  1712  0894                     	;# 
  1713  0895                     	;# 
  1714  0895                     	;# 
  1715  0895                     	;# 
  1716  0896                     	;# 
  1717  0896                     	;# 
  1718  0896                     	;# 
  1719  089B                     	;# 
  1720  0911                     	;# 
  1721  0912                     	;# 
  1722  0913                     	;# 
  1723  0914                     	;# 
  1724  0915                     	;# 
  1725  0916                     	;# 
  1726  0918                     	;# 
  1727  0919                     	;# 
  1728  091A                     	;# 
  1729  091B                     	;# 
  1730  091C                     	;# 
  1731  091D                     	;# 
  1732  091E                     	;# 
  1733  091F                     	;# 
  1734  0E0F                     	;# 
  1735  0E10                     	;# 
  1736  0E11                     	;# 
  1737  0E12                     	;# 
  1738  0E13                     	;# 
  1739  0E14                     	;# 
  1740  0E15                     	;# 
  1741  0E16                     	;# 
  1742  0E17                     	;# 
  1743  0E18                     	;# 
  1744  0E19                     	;# 
  1745  0E1A                     	;# 
  1746  0E1B                     	;# 
  1747  0E1C                     	;# 
  1748  0E1D                     	;# 
  1749  0E1E                     	;# 
  1750  0E1F                     	;# 
  1751  0E20                     	;# 
  1752  0E21                     	;# 
  1753  0E22                     	;# 
  1754  0E24                     	;# 
  1755  0E25                     	;# 
  1756  0E28                     	;# 
  1757  0E29                     	;# 
  1758  0E2A                     	;# 
  1759  0E2B                     	;# 
  1760  0E2C                     	;# 
  1761  0E2D                     	;# 
  1762  0E2E                     	;# 
  1763  0E2F                     	;# 
  1764  0E90                     	;# 
  1765  0E91                     	;# 
  1766  0E92                     	;# 
  1767  0E94                     	;# 
  1768  0E95                     	;# 
  1769  0E9C                     	;# 
  1770  0E9D                     	;# 
  1771  0E9E                     	;# 
  1772  0E9F                     	;# 
  1773  0EA0                     	;# 
  1774  0EA1                     	;# 
  1775  0EA2                     	;# 
  1776  0EA3                     	;# 
  1777  0EA4                     	;# 
  1778  0EA5                     	;# 
  1779  0EA6                     	;# 
  1780  0EA7                     	;# 
  1781  0F0F                     	;# 
  1782  0F10                     	;# 
  1783  0F11                     	;# 
  1784  0F12                     	;# 
  1785  0F13                     	;# 
  1786  0F14                     	;# 
  1787  0F15                     	;# 
  1788  0F16                     	;# 
  1789  0F17                     	;# 
  1790  0F18                     	;# 
  1791  0F19                     	;# 
  1792  0F1A                     	;# 
  1793  0F1B                     	;# 
  1794  0F1C                     	;# 
  1795  0F1D                     	;# 
  1796  0F1E                     	;# 
  1797  0F1F                     	;# 
  1798  0F20                     	;# 
  1799  0F21                     	;# 
  1800  0F22                     	;# 
  1801  0F23                     	;# 
  1802  0F24                     	;# 
  1803  0F25                     	;# 
  1804  0F26                     	;# 
  1805  0F27                     	;# 
  1806  0F28                     	;# 
  1807  0F29                     	;# 
  1808  0F2A                     	;# 
  1809  0F2B                     	;# 
  1810  0F2C                     	;# 
  1811  0F2D                     	;# 
  1812  0F2E                     	;# 
  1813  0F2F                     	;# 
  1814  0F30                     	;# 
  1815  0F31                     	;# 
  1816  0F32                     	;# 
  1817  0F33                     	;# 
  1818  0F34                     	;# 
  1819  0F35                     	;# 
  1820  0F36                     	;# 
  1821  0F37                     	;# 
  1822  0FE4                     	;# 
  1823  0FE5                     	;# 
  1824  0FE6                     	;# 
  1825  0FE7                     	;# 
  1826  0FE8                     	;# 
  1827  0FE9                     	;# 
  1828  0FEA                     	;# 
  1829  0FEB                     	;# 
  1830  0FED                     	;# 
  1831  0FEE                     	;# 
  1832  0FEF                     	;# 
  1833  0000                     	;# 
  1834  0001                     	;# 
  1835  0002                     	;# 
  1836  0003                     	;# 
  1837  0004                     	;# 
  1838  0005                     	;# 
  1839  0006                     	;# 
  1840  0007                     	;# 
  1841  0008                     	;# 
  1842  0009                     	;# 
  1843  000A                     	;# 
  1844  000B                     	;# 
  1845  000C                     	;# 
  1846  000D                     	;# 
  1847  000E                     	;# 
  1848  0010                     	;# 
  1849  0011                     	;# 
  1850  0012                     	;# 
  1851  0013                     	;# 
  1852  0014                     	;# 
  1853  0015                     	;# 
  1854  0015                     	;# 
  1855  0016                     	;# 
  1856  0016                     	;# 
  1857  0017                     	;# 
  1858  0018                     	;# 
  1859  0019                     	;# 
  1860  0019                     	;# 
  1861  001A                     	;# 
  1862  001B                     	;# 
  1863  001C                     	;# 
  1864  001D                     	;# 
  1865  001E                     	;# 
  1866  001F                     	;# 
  1867  008C                     	;# 
  1868  008D                     	;# 
  1869  008E                     	;# 
  1870  0090                     	;# 
  1871  0091                     	;# 
  1872  0092                     	;# 
  1873  0093                     	;# 
  1874  0094                     	;# 
  1875  0097                     	;# 
  1876  009B                     	;# 
  1877  009B                     	;# 
  1878  009C                     	;# 
  1879  009D                     	;# 
  1880  009E                     	;# 
  1881  009F                     	;# 
  1882  010C                     	;# 
  1883  010D                     	;# 
  1884  010E                     	;# 
  1885  0111                     	;# 
  1886  0112                     	;# 
  1887  0113                     	;# 
  1888  0114                     	;# 
  1889  0115                     	;# 
  1890  0116                     	;# 
  1891  0117                     	;# 
  1892  0118                     	;# 
  1893  0119                     	;# 
  1894  018C                     	;# 
  1895  018D                     	;# 
  1896  018E                     	;# 
  1897  0197                     	;# 
  1898  0199                     	;# 
  1899  0199                     	;# 
  1900  0199                     	;# 
  1901  019A                     	;# 
  1902  019A                     	;# 
  1903  019A                     	;# 
  1904  019B                     	;# 
  1905  019B                     	;# 
  1906  019B                     	;# 
  1907  019B                     	;# 
  1908  019B                     	;# 
  1909  019C                     	;# 
  1910  019C                     	;# 
  1911  019C                     	;# 
  1912  019D                     	;# 
  1913  019D                     	;# 
  1914  019D                     	;# 
  1915  019E                     	;# 
  1916  019E                     	;# 
  1917  019E                     	;# 
  1918  019F                     	;# 
  1919  019F                     	;# 
  1920  019F                     	;# 
  1921  019F                     	;# 
  1922  019F                     	;# 
  1923  020C                     	;# 
  1924  020D                     	;# 
  1925  020E                     	;# 
  1926  0211                     	;# 
  1927  0211                     	;# 
  1928  0212                     	;# 
  1929  0212                     	;# 
  1930  0213                     	;# 
  1931  0213                     	;# 
  1932  0214                     	;# 
  1933  0214                     	;# 
  1934  0215                     	;# 
  1935  0215                     	;# 
  1936  0215                     	;# 
  1937  0215                     	;# 
  1938  0216                     	;# 
  1939  0216                     	;# 
  1940  0217                     	;# 
  1941  0217                     	;# 
  1942  0219                     	;# 
  1943  021A                     	;# 
  1944  021B                     	;# 
  1945  021C                     	;# 
  1946  021D                     	;# 
  1947  021D                     	;# 
  1948  021E                     	;# 
  1949  021F                     	;# 
  1950  028C                     	;# 
  1951  028D                     	;# 
  1952  028E                     	;# 
  1953  0291                     	;# 
  1954  0291                     	;# 
  1955  0292                     	;# 
  1956  0293                     	;# 
  1957  0294                     	;# 
  1958  0295                     	;# 
  1959  0295                     	;# 
  1960  0296                     	;# 
  1961  0297                     	;# 
  1962  0298                     	;# 
  1963  029F                     	;# 
  1964  030C                     	;# 
  1965  030D                     	;# 
  1966  030E                     	;# 
  1967  0311                     	;# 
  1968  0311                     	;# 
  1969  0312                     	;# 
  1970  0313                     	;# 
  1971  0314                     	;# 
  1972  0315                     	;# 
  1973  0315                     	;# 
  1974  0316                     	;# 
  1975  0317                     	;# 
  1976  0318                     	;# 
  1977  038C                     	;# 
  1978  038D                     	;# 
  1979  038E                     	;# 
  1980  0391                     	;# 
  1981  0392                     	;# 
  1982  0393                     	;# 
  1983  0394                     	;# 
  1984  0395                     	;# 
  1985  0396                     	;# 
  1986  0397                     	;# 
  1987  0398                     	;# 
  1988  0399                     	;# 
  1989  039A                     	;# 
  1990  039C                     	;# 
  1991  039D                     	;# 
  1992  039E                     	;# 
  1993  039F                     	;# 
  1994  0411                     	;# 
  1995  0411                     	;# 
  1996  0412                     	;# 
  1997  0413                     	;# 
  1998  0414                     	;# 
  1999  0415                     	;# 
  2000  0416                     	;# 
  2001  0417                     	;# 
  2002  0418                     	;# 
  2003  0418                     	;# 
  2004  0419                     	;# 
  2005  041A                     	;# 
  2006  041B                     	;# 
  2007  041C                     	;# 
  2008  041D                     	;# 
  2009  041E                     	;# 
  2010  041F                     	;# 
  2011  0498                     	;# 
  2012  0498                     	;# 
  2013  0499                     	;# 
  2014  049A                     	;# 
  2015  049B                     	;# 
  2016  049B                     	;# 
  2017  049C                     	;# 
  2018  049D                     	;# 
  2019  049E                     	;# 
  2020  049F                     	;# 
  2021  0617                     	;# 
  2022  0618                     	;# 
  2023  0619                     	;# 
  2024  0619                     	;# 
  2025  061A                     	;# 
  2026  061B                     	;# 
  2027  061C                     	;# 
  2028  061C                     	;# 
  2029  061F                     	;# 
  2030  0691                     	;# 
  2031  0692                     	;# 
  2032  0693                     	;# 
  2033  0694                     	;# 
  2034  0695                     	;# 
  2035  0696                     	;# 
  2036  0697                     	;# 
  2037  0698                     	;# 
  2038  0699                     	;# 
  2039  0711                     	;# 
  2040  0712                     	;# 
  2041  0713                     	;# 
  2042  0714                     	;# 
  2043  0715                     	;# 
  2044  0716                     	;# 
  2045  0717                     	;# 
  2046  0718                     	;# 
  2047  0719                     	;# 
  2048  0891                     	;# 
  2049  0891                     	;# 
  2050  0891                     	;# 
  2051  0891                     	;# 
  2052  0891                     	;# 
  2053  0891                     	;# 
  2054  0892                     	;# 
  2055  0892                     	;# 
  2056  0892                     	;# 
  2057  0893                     	;# 
  2058  0893                     	;# 
  2059  0893                     	;# 
  2060  0893                     	;# 
  2061  0893                     	;# 
  2062  0893                     	;# 
  2063  0894                     	;# 
  2064  0894                     	;# 
  2065  0894                     	;# 
  2066  0895                     	;# 
  2067  0895                     	;# 
  2068  0895                     	;# 
  2069  0896                     	;# 
  2070  0896                     	;# 
  2071  0896                     	;# 
  2072  089B                     	;# 
  2073  0911                     	;# 
  2074  0912                     	;# 
  2075  0913                     	;# 
  2076  0914                     	;# 
  2077  0915                     	;# 
  2078  0916                     	;# 
  2079  0918                     	;# 
  2080  0919                     	;# 
  2081  091A                     	;# 
  2082  091B                     	;# 
  2083  091C                     	;# 
  2084  091D                     	;# 
  2085  091E                     	;# 
  2086  091F                     	;# 
  2087  0E0F                     	;# 
  2088  0E10                     	;# 
  2089  0E11                     	;# 
  2090  0E12                     	;# 
  2091  0E13                     	;# 
  2092  0E14                     	;# 
  2093  0E15                     	;# 
  2094  0E16                     	;# 
  2095  0E17                     	;# 
  2096  0E18                     	;# 
  2097  0E19                     	;# 
  2098  0E1A                     	;# 
  2099  0E1B                     	;# 
  2100  0E1C                     	;# 
  2101  0E1D                     	;# 
  2102  0E1E                     	;# 
  2103  0E1F                     	;# 
  2104  0E20                     	;# 
  2105  0E21                     	;# 
  2106  0E22                     	;# 
  2107  0E24                     	;# 
  2108  0E25                     	;# 
  2109  0E28                     	;# 
  2110  0E29                     	;# 
  2111  0E2A                     	;# 
  2112  0E2B                     	;# 
  2113  0E2C                     	;# 
  2114  0E2D                     	;# 
  2115  0E2E                     	;# 
  2116  0E2F                     	;# 
  2117  0E90                     	;# 
  2118  0E91                     	;# 
  2119  0E92                     	;# 
  2120  0E94                     	;# 
  2121  0E95                     	;# 
  2122  0E9C                     	;# 
  2123  0E9D                     	;# 
  2124  0E9E                     	;# 
  2125  0E9F                     	;# 
  2126  0EA0                     	;# 
  2127  0EA1                     	;# 
  2128  0EA2                     	;# 
  2129  0EA3                     	;# 
  2130  0EA4                     	;# 
  2131  0EA5                     	;# 
  2132  0EA6                     	;# 
  2133  0EA7                     	;# 
  2134  0F0F                     	;# 
  2135  0F10                     	;# 
  2136  0F11                     	;# 
  2137  0F12                     	;# 
  2138  0F13                     	;# 
  2139  0F14                     	;# 
  2140  0F15                     	;# 
  2141  0F16                     	;# 
  2142  0F17                     	;# 
  2143  0F18                     	;# 
  2144  0F19                     	;# 
  2145  0F1A                     	;# 
  2146  0F1B                     	;# 
  2147  0F1C                     	;# 
  2148  0F1D                     	;# 
  2149  0F1E                     	;# 
  2150  0F1F                     	;# 
  2151  0F20                     	;# 
  2152  0F21                     	;# 
  2153  0F22                     	;# 
  2154  0F23                     	;# 
  2155  0F24                     	;# 
  2156  0F25                     	;# 
  2157  0F26                     	;# 
  2158  0F27                     	;# 
  2159  0F28                     	;# 
  2160  0F29                     	;# 
  2161  0F2A                     	;# 
  2162  0F2B                     	;# 
  2163  0F2C                     	;# 
  2164  0F2D                     	;# 
  2165  0F2E                     	;# 
  2166  0F2F                     	;# 
  2167  0F30                     	;# 
  2168  0F31                     	;# 
  2169  0F32                     	;# 
  2170  0F33                     	;# 
  2171  0F34                     	;# 
  2172  0F35                     	;# 
  2173  0F36                     	;# 
  2174  0F37                     	;# 
  2175  0FE4                     	;# 
  2176  0FE5                     	;# 
  2177  0FE6                     	;# 
  2178  0FE7                     	;# 
  2179  0FE8                     	;# 
  2180  0FE9                     	;# 
  2181  0FEA                     	;# 
  2182  0FEB                     	;# 
  2183  0FED                     	;# 
  2184  0FEE                     	;# 
  2185  0FEF                     	;# 
  2186  0000                     	;# 
  2187  0001                     	;# 
  2188  0002                     	;# 
  2189  0003                     	;# 
  2190  0004                     	;# 
  2191  0005                     	;# 
  2192  0006                     	;# 
  2193  0007                     	;# 
  2194  0008                     	;# 
  2195  0009                     	;# 
  2196  000A                     	;# 
  2197  000B                     	;# 
  2198  000C                     	;# 
  2199  000D                     	;# 
  2200  000E                     	;# 
  2201  0010                     	;# 
  2202  0011                     	;# 
  2203  0012                     	;# 
  2204  0013                     	;# 
  2205  0014                     	;# 
  2206  0015                     	;# 
  2207  0015                     	;# 
  2208  0016                     	;# 
  2209  0016                     	;# 
  2210  0017                     	;# 
  2211  0018                     	;# 
  2212  0019                     	;# 
  2213  0019                     	;# 
  2214  001A                     	;# 
  2215  001B                     	;# 
  2216  001C                     	;# 
  2217  001D                     	;# 
  2218  001E                     	;# 
  2219  001F                     	;# 
  2220  008C                     	;# 
  2221  008D                     	;# 
  2222  008E                     	;# 
  2223  0090                     	;# 
  2224  0091                     	;# 
  2225  0092                     	;# 
  2226  0093                     	;# 
  2227  0094                     	;# 
  2228  0097                     	;# 
  2229  009B                     	;# 
  2230  009B                     	;# 
  2231  009C                     	;# 
  2232  009D                     	;# 
  2233  009E                     	;# 
  2234  009F                     	;# 
  2235  010C                     	;# 
  2236  010D                     	;# 
  2237  010E                     	;# 
  2238  0111                     	;# 
  2239  0112                     	;# 
  2240  0113                     	;# 
  2241  0114                     	;# 
  2242  0115                     	;# 
  2243  0116                     	;# 
  2244  0117                     	;# 
  2245  0118                     	;# 
  2246  0119                     	;# 
  2247  018C                     	;# 
  2248  018D                     	;# 
  2249  018E                     	;# 
  2250  0197                     	;# 
  2251  0199                     	;# 
  2252  0199                     	;# 
  2253  0199                     	;# 
  2254  019A                     	;# 
  2255  019A                     	;# 
  2256  019A                     	;# 
  2257  019B                     	;# 
  2258  019B                     	;# 
  2259  019B                     	;# 
  2260  019B                     	;# 
  2261  019B                     	;# 
  2262  019C                     	;# 
  2263  019C                     	;# 
  2264  019C                     	;# 
  2265  019D                     	;# 
  2266  019D                     	;# 
  2267  019D                     	;# 
  2268  019E                     	;# 
  2269  019E                     	;# 
  2270  019E                     	;# 
  2271  019F                     	;# 
  2272  019F                     	;# 
  2273  019F                     	;# 
  2274  019F                     	;# 
  2275  019F                     	;# 
  2276  020C                     	;# 
  2277  020D                     	;# 
  2278  020E                     	;# 
  2279  0211                     	;# 
  2280  0211                     	;# 
  2281  0212                     	;# 
  2282  0212                     	;# 
  2283  0213                     	;# 
  2284  0213                     	;# 
  2285  0214                     	;# 
  2286  0214                     	;# 
  2287  0215                     	;# 
  2288  0215                     	;# 
  2289  0215                     	;# 
  2290  0215                     	;# 
  2291  0216                     	;# 
  2292  0216                     	;# 
  2293  0217                     	;# 
  2294  0217                     	;# 
  2295  0219                     	;# 
  2296  021A                     	;# 
  2297  021B                     	;# 
  2298  021C                     	;# 
  2299  021D                     	;# 
  2300  021D                     	;# 
  2301  021E                     	;# 
  2302  021F                     	;# 
  2303  028C                     	;# 
  2304  028D                     	;# 
  2305  028E                     	;# 
  2306  0291                     	;# 
  2307  0291                     	;# 
  2308  0292                     	;# 
  2309  0293                     	;# 
  2310  0294                     	;# 
  2311  0295                     	;# 
  2312  0295                     	;# 
  2313  0296                     	;# 
  2314  0297                     	;# 
  2315  0298                     	;# 
  2316  029F                     	;# 
  2317  030C                     	;# 
  2318  030D                     	;# 
  2319  030E                     	;# 
  2320  0311                     	;# 
  2321  0311                     	;# 
  2322  0312                     	;# 
  2323  0313                     	;# 
  2324  0314                     	;# 
  2325  0315                     	;# 
  2326  0315                     	;# 
  2327  0316                     	;# 
  2328  0317                     	;# 
  2329  0318                     	;# 
  2330  038C                     	;# 
  2331  038D                     	;# 
  2332  038E                     	;# 
  2333  0391                     	;# 
  2334  0392                     	;# 
  2335  0393                     	;# 
  2336  0394                     	;# 
  2337  0395                     	;# 
  2338  0396                     	;# 
  2339  0397                     	;# 
  2340  0398                     	;# 
  2341  0399                     	;# 
  2342  039A                     	;# 
  2343  039C                     	;# 
  2344  039D                     	;# 
  2345  039E                     	;# 
  2346  039F                     	;# 
  2347  0411                     	;# 
  2348  0411                     	;# 
  2349  0412                     	;# 
  2350  0413                     	;# 
  2351  0414                     	;# 
  2352  0415                     	;# 
  2353  0416                     	;# 
  2354  0417                     	;# 
  2355  0418                     	;# 
  2356  0418                     	;# 
  2357  0419                     	;# 
  2358  041A                     	;# 
  2359  041B                     	;# 
  2360  041C                     	;# 
  2361  041D                     	;# 
  2362  041E                     	;# 
  2363  041F                     	;# 
  2364  0498                     	;# 
  2365  0498                     	;# 
  2366  0499                     	;# 
  2367  049A                     	;# 
  2368  049B                     	;# 
  2369  049B                     	;# 
  2370  049C                     	;# 
  2371  049D                     	;# 
  2372  049E                     	;# 
  2373  049F                     	;# 
  2374  0617                     	;# 
  2375  0618                     	;# 
  2376  0619                     	;# 
  2377  0619                     	;# 
  2378  061A                     	;# 
  2379  061B                     	;# 
  2380  061C                     	;# 
  2381  061C                     	;# 
  2382  061F                     	;# 
  2383  0691                     	;# 
  2384  0692                     	;# 
  2385  0693                     	;# 
  2386  0694                     	;# 
  2387  0695                     	;# 
  2388  0696                     	;# 
  2389  0697                     	;# 
  2390  0698                     	;# 
  2391  0699                     	;# 
  2392  0711                     	;# 
  2393  0712                     	;# 
  2394  0713                     	;# 
  2395  0714                     	;# 
  2396  0715                     	;# 
  2397  0716                     	;# 
  2398  0717                     	;# 
  2399  0718                     	;# 
  2400  0719                     	;# 
  2401  0891                     	;# 
  2402  0891                     	;# 
  2403  0891                     	;# 
  2404  0891                     	;# 
  2405  0891                     	;# 
  2406  0891                     	;# 
  2407  0892                     	;# 
  2408  0892                     	;# 
  2409  0892                     	;# 
  2410  0893                     	;# 
  2411  0893                     	;# 
  2412  0893                     	;# 
  2413  0893                     	;# 
  2414  0893                     	;# 
  2415  0893                     	;# 
  2416  0894                     	;# 
  2417  0894                     	;# 
  2418  0894                     	;# 
  2419  0895                     	;# 
  2420  0895                     	;# 
  2421  0895                     	;# 
  2422  0896                     	;# 
  2423  0896                     	;# 
  2424  0896                     	;# 
  2425  089B                     	;# 
  2426  0911                     	;# 
  2427  0912                     	;# 
  2428  0913                     	;# 
  2429  0914                     	;# 
  2430  0915                     	;# 
  2431  0916                     	;# 
  2432  0918                     	;# 
  2433  0919                     	;# 
  2434  091A                     	;# 
  2435  091B                     	;# 
  2436  091C                     	;# 
  2437  091D                     	;# 
  2438  091E                     	;# 
  2439  091F                     	;# 
  2440  0E0F                     	;# 
  2441  0E10                     	;# 
  2442  0E11                     	;# 
  2443  0E12                     	;# 
  2444  0E13                     	;# 
  2445  0E14                     	;# 
  2446  0E15                     	;# 
  2447  0E16                     	;# 
  2448  0E17                     	;# 
  2449  0E18                     	;# 
  2450  0E19                     	;# 
  2451  0E1A                     	;# 
  2452  0E1B                     	;# 
  2453  0E1C                     	;# 
  2454  0E1D                     	;# 
  2455  0E1E                     	;# 
  2456  0E1F                     	;# 
  2457  0E20                     	;# 
  2458  0E21                     	;# 
  2459  0E22                     	;# 
  2460  0E24                     	;# 
  2461  0E25                     	;# 
  2462  0E28                     	;# 
  2463  0E29                     	;# 
  2464  0E2A                     	;# 
  2465  0E2B                     	;# 
  2466  0E2C                     	;# 
  2467  0E2D                     	;# 
  2468  0E2E                     	;# 
  2469  0E2F                     	;# 
  2470  0E90                     	;# 
  2471  0E91                     	;# 
  2472  0E92                     	;# 
  2473  0E94                     	;# 
  2474  0E95                     	;# 
  2475  0E9C                     	;# 
  2476  0E9D                     	;# 
  2477  0E9E                     	;# 
  2478  0E9F                     	;# 
  2479  0EA0                     	;# 
  2480  0EA1                     	;# 
  2481  0EA2                     	;# 
  2482  0EA3                     	;# 
  2483  0EA4                     	;# 
  2484  0EA5                     	;# 
  2485  0EA6                     	;# 
  2486  0EA7                     	;# 
  2487  0F0F                     	;# 
  2488  0F10                     	;# 
  2489  0F11                     	;# 
  2490  0F12                     	;# 
  2491  0F13                     	;# 
  2492  0F14                     	;# 
  2493  0F15                     	;# 
  2494  0F16                     	;# 
  2495  0F17                     	;# 
  2496  0F18                     	;# 
  2497  0F19                     	;# 
  2498  0F1A                     	;# 
  2499  0F1B                     	;# 
  2500  0F1C                     	;# 
  2501  0F1D                     	;# 
  2502  0F1E                     	;# 
  2503  0F1F                     	;# 
  2504  0F20                     	;# 
  2505  0F21                     	;# 
  2506  0F22                     	;# 
  2507  0F23                     	;# 
  2508  0F24                     	;# 
  2509  0F25                     	;# 
  2510  0F26                     	;# 
  2511  0F27                     	;# 
  2512  0F28                     	;# 
  2513  0F29                     	;# 
  2514  0F2A                     	;# 
  2515  0F2B                     	;# 
  2516  0F2C                     	;# 
  2517  0F2D                     	;# 
  2518  0F2E                     	;# 
  2519  0F2F                     	;# 
  2520  0F30                     	;# 
  2521  0F31                     	;# 
  2522  0F32                     	;# 
  2523  0F33                     	;# 
  2524  0F34                     	;# 
  2525  0F35                     	;# 
  2526  0F36                     	;# 
  2527  0F37                     	;# 
  2528  0FE4                     	;# 
  2529  0FE5                     	;# 
  2530  0FE6                     	;# 
  2531  0FE7                     	;# 
  2532  0FE8                     	;# 
  2533  0FE9                     	;# 
  2534  0FEA                     	;# 
  2535  0FEB                     	;# 
  2536  0FED                     	;# 
  2537  0FEE                     	;# 
  2538  0FEF                     	;# 
  2539  0000                     	;# 
  2540  0001                     	;# 
  2541  0002                     	;# 
  2542  0003                     	;# 
  2543  0004                     	;# 
  2544  0005                     	;# 
  2545  0006                     	;# 
  2546  0007                     	;# 
  2547  0008                     	;# 
  2548  0009                     	;# 
  2549  000A                     	;# 
  2550  000B                     	;# 
  2551  000C                     	;# 
  2552  000D                     	;# 
  2553  000E                     	;# 
  2554  0010                     	;# 
  2555  0011                     	;# 
  2556  0012                     	;# 
  2557  0013                     	;# 
  2558  0014                     	;# 
  2559  0015                     	;# 
  2560  0015                     	;# 
  2561  0016                     	;# 
  2562  0016                     	;# 
  2563  0017                     	;# 
  2564  0018                     	;# 
  2565  0019                     	;# 
  2566  0019                     	;# 
  2567  001A                     	;# 
  2568  001B                     	;# 
  2569  001C                     	;# 
  2570  001D                     	;# 
  2571  001E                     	;# 
  2572  001F                     	;# 
  2573  008C                     	;# 
  2574  008D                     	;# 
  2575  008E                     	;# 
  2576  0090                     	;# 
  2577  0091                     	;# 
  2578  0092                     	;# 
  2579  0093                     	;# 
  2580  0094                     	;# 
  2581  0097                     	;# 
  2582  009B                     	;# 
  2583  009B                     	;# 
  2584  009C                     	;# 
  2585  009D                     	;# 
  2586  009E                     	;# 
  2587  009F                     	;# 
  2588  010C                     	;# 
  2589  010D                     	;# 
  2590  010E                     	;# 
  2591  0111                     	;# 
  2592  0112                     	;# 
  2593  0113                     	;# 
  2594  0114                     	;# 
  2595  0115                     	;# 
  2596  0116                     	;# 
  2597  0117                     	;# 
  2598  0118                     	;# 
  2599  0119                     	;# 
  2600  018C                     	;# 
  2601  018D                     	;# 
  2602  018E                     	;# 
  2603  0197                     	;# 
  2604  0199                     	;# 
  2605  0199                     	;# 
  2606  0199                     	;# 
  2607  019A                     	;# 
  2608  019A                     	;# 
  2609  019A                     	;# 
  2610  019B                     	;# 
  2611  019B                     	;# 
  2612  019B                     	;# 
  2613  019B                     	;# 
  2614  019B                     	;# 
  2615  019C                     	;# 
  2616  019C                     	;# 
  2617  019C                     	;# 
  2618  019D                     	;# 
  2619  019D                     	;# 
  2620  019D                     	;# 
  2621  019E                     	;# 
  2622  019E                     	;# 
  2623  019E                     	;# 
  2624  019F                     	;# 
  2625  019F                     	;# 
  2626  019F                     	;# 
  2627  019F                     	;# 
  2628  019F                     	;# 
  2629  020C                     	;# 
  2630  020D                     	;# 
  2631  020E                     	;# 
  2632  0211                     	;# 
  2633  0211                     	;# 
  2634  0212                     	;# 
  2635  0212                     	;# 
  2636  0213                     	;# 
  2637  0213                     	;# 
  2638  0214                     	;# 
  2639  0214                     	;# 
  2640  0215                     	;# 
  2641  0215                     	;# 
  2642  0215                     	;# 
  2643  0215                     	;# 
  2644  0216                     	;# 
  2645  0216                     	;# 
  2646  0217                     	;# 
  2647  0217                     	;# 
  2648  0219                     	;# 
  2649  021A                     	;# 
  2650  021B                     	;# 
  2651  021C                     	;# 
  2652  021D                     	;# 
  2653  021D                     	;# 
  2654  021E                     	;# 
  2655  021F                     	;# 
  2656  028C                     	;# 
  2657  028D                     	;# 
  2658  028E                     	;# 
  2659  0291                     	;# 
  2660  0291                     	;# 
  2661  0292                     	;# 
  2662  0293                     	;# 
  2663  0294                     	;# 
  2664  0295                     	;# 
  2665  0295                     	;# 
  2666  0296                     	;# 
  2667  0297                     	;# 
  2668  0298                     	;# 
  2669  029F                     	;# 
  2670  030C                     	;# 
  2671  030D                     	;# 
  2672  030E                     	;# 
  2673  0311                     	;# 
  2674  0311                     	;# 
  2675  0312                     	;# 
  2676  0313                     	;# 
  2677  0314                     	;# 
  2678  0315                     	;# 
  2679  0315                     	;# 
  2680  0316                     	;# 
  2681  0317                     	;# 
  2682  0318                     	;# 
  2683  038C                     	;# 
  2684  038D                     	;# 
  2685  038E                     	;# 
  2686  0391                     	;# 
  2687  0392                     	;# 
  2688  0393                     	;# 
  2689  0394                     	;# 
  2690  0395                     	;# 
  2691  0396                     	;# 
  2692  0397                     	;# 
  2693  0398                     	;# 
  2694  0399                     	;# 
  2695  039A                     	;# 
  2696  039C                     	;# 
  2697  039D                     	;# 
  2698  039E                     	;# 
  2699  039F                     	;# 
  2700  0411                     	;# 
  2701  0411                     	;# 
  2702  0412                     	;# 
  2703  0413                     	;# 
  2704  0414                     	;# 
  2705  0415                     	;# 
  2706  0416                     	;# 
  2707  0417                     	;# 
  2708  0418                     	;# 
  2709  0418                     	;# 
  2710  0419                     	;# 
  2711  041A                     	;# 
  2712  041B                     	;# 
  2713  041C                     	;# 
  2714  041D                     	;# 
  2715  041E                     	;# 
  2716  041F                     	;# 
  2717  0498                     	;# 
  2718  0498                     	;# 
  2719  0499                     	;# 
  2720  049A                     	;# 
  2721  049B                     	;# 
  2722  049B                     	;# 
  2723  049C                     	;# 
  2724  049D                     	;# 
  2725  049E                     	;# 
  2726  049F                     	;# 
  2727  0617                     	;# 
  2728  0618                     	;# 
  2729  0619                     	;# 
  2730  0619                     	;# 
  2731  061A                     	;# 
  2732  061B                     	;# 
  2733  061C                     	;# 
  2734  061C                     	;# 
  2735  061F                     	;# 
  2736  0691                     	;# 
  2737  0692                     	;# 
  2738  0693                     	;# 
  2739  0694                     	;# 
  2740  0695                     	;# 
  2741  0696                     	;# 
  2742  0697                     	;# 
  2743  0698                     	;# 
  2744  0699                     	;# 
  2745  0711                     	;# 
  2746  0712                     	;# 
  2747  0713                     	;# 
  2748  0714                     	;# 
  2749  0715                     	;# 
  2750  0716                     	;# 
  2751  0717                     	;# 
  2752  0718                     	;# 
  2753  0719                     	;# 
  2754  0891                     	;# 
  2755  0891                     	;# 
  2756  0891                     	;# 
  2757  0891                     	;# 
  2758  0891                     	;# 
  2759  0891                     	;# 
  2760  0892                     	;# 
  2761  0892                     	;# 
  2762  0892                     	;# 
  2763  0893                     	;# 
  2764  0893                     	;# 
  2765  0893                     	;# 
  2766  0893                     	;# 
  2767  0893                     	;# 
  2768  0893                     	;# 
  2769  0894                     	;# 
  2770  0894                     	;# 
  2771  0894                     	;# 
  2772  0895                     	;# 
  2773  0895                     	;# 
  2774  0895                     	;# 
  2775  0896                     	;# 
  2776  0896                     	;# 
  2777  0896                     	;# 
  2778  089B                     	;# 
  2779  0911                     	;# 
  2780  0912                     	;# 
  2781  0913                     	;# 
  2782  0914                     	;# 
  2783  0915                     	;# 
  2784  0916                     	;# 
  2785  0918                     	;# 
  2786  0919                     	;# 
  2787  091A                     	;# 
  2788  091B                     	;# 
  2789  091C                     	;# 
  2790  091D                     	;# 
  2791  091E                     	;# 
  2792  091F                     	;# 
  2793  0E0F                     	;# 
  2794  0E10                     	;# 
  2795  0E11                     	;# 
  2796  0E12                     	;# 
  2797  0E13                     	;# 
  2798  0E14                     	;# 
  2799  0E15                     	;# 
  2800  0E16                     	;# 
  2801  0E17                     	;# 
  2802  0E18                     	;# 
  2803  0E19                     	;# 
  2804  0E1A                     	;# 
  2805  0E1B                     	;# 
  2806  0E1C                     	;# 
  2807  0E1D                     	;# 
  2808  0E1E                     	;# 
  2809  0E1F                     	;# 
  2810  0E20                     	;# 
  2811  0E21                     	;# 
  2812  0E22                     	;# 
  2813  0E24                     	;# 
  2814  0E25                     	;# 
  2815  0E28                     	;# 
  2816  0E29                     	;# 
  2817  0E2A                     	;# 
  2818  0E2B                     	;# 
  2819  0E2C                     	;# 
  2820  0E2D                     	;# 
  2821  0E2E                     	;# 
  2822  0E2F                     	;# 
  2823  0E90                     	;# 
  2824  0E91                     	;# 
  2825  0E92                     	;# 
  2826  0E94                     	;# 
  2827  0E95                     	;# 
  2828  0E9C                     	;# 
  2829  0E9D                     	;# 
  2830  0E9E                     	;# 
  2831  0E9F                     	;# 
  2832  0EA0                     	;# 
  2833  0EA1                     	;# 
  2834  0EA2                     	;# 
  2835  0EA3                     	;# 
  2836  0EA4                     	;# 
  2837  0EA5                     	;# 
  2838  0EA6                     	;# 
  2839  0EA7                     	;# 
  2840  0F0F                     	;# 
  2841  0F10                     	;# 
  2842  0F11                     	;# 
  2843  0F12                     	;# 
  2844  0F13                     	;# 
  2845  0F14                     	;# 
  2846  0F15                     	;# 
  2847  0F16                     	;# 
  2848  0F17                     	;# 
  2849  0F18                     	;# 
  2850  0F19                     	;# 
  2851  0F1A                     	;# 
  2852  0F1B                     	;# 
  2853  0F1C                     	;# 
  2854  0F1D                     	;# 
  2855  0F1E                     	;# 
  2856  0F1F                     	;# 
  2857  0F20                     	;# 
  2858  0F21                     	;# 
  2859  0F22                     	;# 
  2860  0F23                     	;# 
  2861  0F24                     	;# 
  2862  0F25                     	;# 
  2863  0F26                     	;# 
  2864  0F27                     	;# 
  2865  0F28                     	;# 
  2866  0F29                     	;# 
  2867  0F2A                     	;# 
  2868  0F2B                     	;# 
  2869  0F2C                     	;# 
  2870  0F2D                     	;# 
  2871  0F2E                     	;# 
  2872  0F2F                     	;# 
  2873  0F30                     	;# 
  2874  0F31                     	;# 
  2875  0F32                     	;# 
  2876  0F33                     	;# 
  2877  0F34                     	;# 
  2878  0F35                     	;# 
  2879  0F36                     	;# 
  2880  0F37                     	;# 
  2881  0FE4                     	;# 
  2882  0FE5                     	;# 
  2883  0FE6                     	;# 
  2884  0FE7                     	;# 
  2885  0FE8                     	;# 
  2886  0FE9                     	;# 
  2887  0FEA                     	;# 
  2888  0FEB                     	;# 
  2889  0FED                     	;# 
  2890  0FEE                     	;# 
  2891  0FEF                     	;# 
  2892                           
  2893                           	psect	idataBANK0
  2894  068E                     __pidataBANK0:	
  2895                           
  2896                           ;initializer for SPI@F6926
  2897  068E  34FE               	retlw	254
  2898  068F  3442               	retlw	66
  2899                           
  2900                           ;initializer for _txt
  2901  0690  34DB               	retlw	low (STR_1| (0+32768))
  2902  0691  3489               	retlw	high (STR_1| (0+32768))
  2903                           
  2904                           ;initializer for _wrap
  2905  0692  3401               	retlw	1
  2906  0693  3400               	retlw	0
  2907                           
  2908                           ;initializer for _event
  2909  0694  3401               	retlw	1
  2910                           
  2911                           	psect	stringtext1
  2912  0800                     __pstringtext1:	
  2913  0800                     _Font:	
  2914  0800  3400               	retlw	0
  2915  0801  3400               	retlw	0
  2916  0802  3400               	retlw	0
  2917  0803  3400               	retlw	0
  2918  0804  3400               	retlw	0
  2919  0805  3400               	retlw	0
  2920  0806  3400               	retlw	0
  2921  0807  345F               	retlw	95
  2922  0808  3400               	retlw	0
  2923  0809  3400               	retlw	0
  2924  080A  3400               	retlw	0
  2925  080B  3407               	retlw	7
  2926  080C  3400               	retlw	0
  2927  080D  3407               	retlw	7
  2928  080E  3400               	retlw	0
  2929  080F  3414               	retlw	20
  2930  0810  347F               	retlw	127
  2931  0811  3414               	retlw	20
  2932  0812  347F               	retlw	127
  2933  0813  3414               	retlw	20
  2934  0814  3424               	retlw	36
  2935  0815  342A               	retlw	42
  2936  0816  347F               	retlw	127
  2937  0817  342A               	retlw	42
  2938  0818  3412               	retlw	18
  2939  0819  3423               	retlw	35
  2940  081A  3413               	retlw	19
  2941  081B  3408               	retlw	8
  2942  081C  3464               	retlw	100
  2943  081D  3462               	retlw	98
  2944  081E  3436               	retlw	54
  2945  081F  3449               	retlw	73
  2946  0820  3456               	retlw	86
  2947  0821  3420               	retlw	32
  2948  0822  3450               	retlw	80
  2949  0823  3400               	retlw	0
  2950  0824  3408               	retlw	8
  2951  0825  3407               	retlw	7
  2952  0826  3403               	retlw	3
  2953  0827  3400               	retlw	0
  2954  0828  3400               	retlw	0
  2955  0829  341C               	retlw	28
  2956  082A  3422               	retlw	34
  2957  082B  3441               	retlw	65
  2958  082C  3400               	retlw	0
  2959  082D  3400               	retlw	0
  2960  082E  3441               	retlw	65
  2961  082F  3422               	retlw	34
  2962  0830  341C               	retlw	28
  2963  0831  3400               	retlw	0
  2964  0832  342A               	retlw	42
  2965  0833  341C               	retlw	28
  2966  0834  347F               	retlw	127
  2967  0835  341C               	retlw	28
  2968  0836  342A               	retlw	42
  2969  0837  3408               	retlw	8
  2970  0838  3408               	retlw	8
  2971  0839  343E               	retlw	62
  2972  083A  3408               	retlw	8
  2973  083B  3408               	retlw	8
  2974  083C  3400               	retlw	0
  2975  083D  3480               	retlw	128
  2976  083E  3470               	retlw	112
  2977  083F  3430               	retlw	48
  2978  0840  3400               	retlw	0
  2979  0841  3408               	retlw	8
  2980  0842  3408               	retlw	8
  2981  0843  3408               	retlw	8
  2982  0844  3408               	retlw	8
  2983  0845  3408               	retlw	8
  2984  0846  3400               	retlw	0
  2985  0847  3400               	retlw	0
  2986  0848  3460               	retlw	96
  2987  0849  3460               	retlw	96
  2988  084A  3400               	retlw	0
  2989  084B  3420               	retlw	32
  2990  084C  3410               	retlw	16
  2991  084D  3408               	retlw	8
  2992  084E  3404               	retlw	4
  2993  084F  3402               	retlw	2
  2994  0850  343E               	retlw	62
  2995  0851  3451               	retlw	81
  2996  0852  3449               	retlw	73
  2997  0853  3445               	retlw	69
  2998  0854  343E               	retlw	62
  2999  0855  3400               	retlw	0
  3000  0856  3442               	retlw	66
  3001  0857  347F               	retlw	127
  3002  0858  3440               	retlw	64
  3003  0859  3400               	retlw	0
  3004  085A  3472               	retlw	114
  3005  085B  3449               	retlw	73
  3006  085C  3449               	retlw	73
  3007  085D  3449               	retlw	73
  3008  085E  3446               	retlw	70
  3009  085F  3421               	retlw	33
  3010  0860  3441               	retlw	65
  3011  0861  3449               	retlw	73
  3012  0862  344D               	retlw	77
  3013  0863  3433               	retlw	51
  3014  0864  3418               	retlw	24
  3015  0865  3414               	retlw	20
  3016  0866  3412               	retlw	18
  3017  0867  347F               	retlw	127
  3018  0868  3410               	retlw	16
  3019  0869  3427               	retlw	39
  3020  086A  3445               	retlw	69
  3021  086B  3445               	retlw	69
  3022  086C  3445               	retlw	69
  3023  086D  3439               	retlw	57
  3024  086E  343C               	retlw	60
  3025  086F  344A               	retlw	74
  3026  0870  3449               	retlw	73
  3027  0871  3449               	retlw	73
  3028  0872  3431               	retlw	49
  3029  0873  3441               	retlw	65
  3030  0874  3421               	retlw	33
  3031  0875  3411               	retlw	17
  3032  0876  3409               	retlw	9
  3033  0877  3407               	retlw	7
  3034  0878  3436               	retlw	54
  3035  0879  3449               	retlw	73
  3036  087A  3449               	retlw	73
  3037  087B  3449               	retlw	73
  3038  087C  3436               	retlw	54
  3039  087D  3446               	retlw	70
  3040  087E  3449               	retlw	73
  3041  087F  3449               	retlw	73
  3042  0880  3429               	retlw	41
  3043  0881  341E               	retlw	30
  3044  0882  3400               	retlw	0
  3045  0883  3400               	retlw	0
  3046  0884  3414               	retlw	20
  3047  0885  3400               	retlw	0
  3048  0886  3400               	retlw	0
  3049  0887  3400               	retlw	0
  3050  0888  3440               	retlw	64
  3051  0889  3434               	retlw	52
  3052  088A  3400               	retlw	0
  3053  088B  3400               	retlw	0
  3054  088C  3400               	retlw	0
  3055  088D  3408               	retlw	8
  3056  088E  3414               	retlw	20
  3057  088F  3422               	retlw	34
  3058  0890  3441               	retlw	65
  3059  0891  3414               	retlw	20
  3060  0892  3414               	retlw	20
  3061  0893  3414               	retlw	20
  3062  0894  3414               	retlw	20
  3063  0895  3414               	retlw	20
  3064  0896  3400               	retlw	0
  3065  0897  3441               	retlw	65
  3066  0898  3422               	retlw	34
  3067  0899  3414               	retlw	20
  3068  089A  3408               	retlw	8
  3069  089B  3402               	retlw	2
  3070  089C  3401               	retlw	1
  3071  089D  3459               	retlw	89
  3072  089E  3409               	retlw	9
  3073  089F  3406               	retlw	6
  3074  08A0  343E               	retlw	62
  3075  08A1  3441               	retlw	65
  3076  08A2  345D               	retlw	93
  3077  08A3  3459               	retlw	89
  3078  08A4  344E               	retlw	78
  3079  08A5  347C               	retlw	124
  3080  08A6  3412               	retlw	18
  3081  08A7  3411               	retlw	17
  3082  08A8  3412               	retlw	18
  3083  08A9  347C               	retlw	124
  3084  08AA  347F               	retlw	127
  3085  08AB  3449               	retlw	73
  3086  08AC  3449               	retlw	73
  3087  08AD  3449               	retlw	73
  3088  08AE  3436               	retlw	54
  3089  08AF  343E               	retlw	62
  3090  08B0  3441               	retlw	65
  3091  08B1  3441               	retlw	65
  3092  08B2  3441               	retlw	65
  3093  08B3  3422               	retlw	34
  3094  08B4  347F               	retlw	127
  3095  08B5  3441               	retlw	65
  3096  08B6  3441               	retlw	65
  3097  08B7  3441               	retlw	65
  3098  08B8  343E               	retlw	62
  3099  08B9  347F               	retlw	127
  3100  08BA  3449               	retlw	73
  3101  08BB  3449               	retlw	73
  3102  08BC  3449               	retlw	73
  3103  08BD  3441               	retlw	65
  3104  08BE  347F               	retlw	127
  3105  08BF  3409               	retlw	9
  3106  08C0  3409               	retlw	9
  3107  08C1  3409               	retlw	9
  3108  08C2  3401               	retlw	1
  3109  08C3  343E               	retlw	62
  3110  08C4  3441               	retlw	65
  3111  08C5  3441               	retlw	65
  3112  08C6  3451               	retlw	81
  3113  08C7  3473               	retlw	115
  3114  08C8  347F               	retlw	127
  3115  08C9  3408               	retlw	8
  3116  08CA  3408               	retlw	8
  3117  08CB  3408               	retlw	8
  3118  08CC  347F               	retlw	127
  3119  08CD  3400               	retlw	0
  3120  08CE  3441               	retlw	65
  3121  08CF  347F               	retlw	127
  3122  08D0  3441               	retlw	65
  3123  08D1  3400               	retlw	0
  3124  08D2  3420               	retlw	32
  3125  08D3  3440               	retlw	64
  3126  08D4  3441               	retlw	65
  3127  08D5  343F               	retlw	63
  3128  08D6  3401               	retlw	1
  3129  08D7  347F               	retlw	127
  3130  08D8  3408               	retlw	8
  3131  08D9  3414               	retlw	20
  3132  08DA  3422               	retlw	34
  3133  08DB  3441               	retlw	65
  3134  08DC  347F               	retlw	127
  3135  08DD  3440               	retlw	64
  3136  08DE  3440               	retlw	64
  3137  08DF  3440               	retlw	64
  3138  08E0  3440               	retlw	64
  3139  08E1  347F               	retlw	127
  3140  08E2  3402               	retlw	2
  3141  08E3  341C               	retlw	28
  3142  08E4  3402               	retlw	2
  3143  08E5  347F               	retlw	127
  3144  08E6  347F               	retlw	127
  3145  08E7  3404               	retlw	4
  3146  08E8  3408               	retlw	8
  3147  08E9  3410               	retlw	16
  3148  08EA  347F               	retlw	127
  3149  08EB  343E               	retlw	62
  3150  08EC  3441               	retlw	65
  3151  08ED  3441               	retlw	65
  3152  08EE  3441               	retlw	65
  3153  08EF  343E               	retlw	62
  3154  08F0  347F               	retlw	127
  3155  08F1  3409               	retlw	9
  3156  08F2  3409               	retlw	9
  3157  08F3  3409               	retlw	9
  3158  08F4  3406               	retlw	6
  3159  08F5  343E               	retlw	62
  3160  08F6  3441               	retlw	65
  3161  08F7  3451               	retlw	81
  3162  08F8  3421               	retlw	33
  3163  08F9  345E               	retlw	94
  3164  08FA  347F               	retlw	127
  3165  08FB  3409               	retlw	9
  3166  08FC  3419               	retlw	25
  3167  08FD  3429               	retlw	41
  3168  08FE  3446               	retlw	70
  3169  08FF                     __end_of_Font:	
  3170                           
  3171                           	psect	stringtext2
  3172  08FF                     __pstringtext2:	
  3173  08FF                     _Font2:	
  3174  08FF  3426               	retlw	38
  3175  0900  3449               	retlw	73
  3176  0901  3449               	retlw	73
  3177  0902  3449               	retlw	73
  3178  0903  3432               	retlw	50
  3179  0904  3403               	retlw	3
  3180  0905  3401               	retlw	1
  3181  0906  347F               	retlw	127
  3182  0907  3401               	retlw	1
  3183  0908  3403               	retlw	3
  3184  0909  343F               	retlw	63
  3185  090A  3440               	retlw	64
  3186  090B  3440               	retlw	64
  3187  090C  3440               	retlw	64
  3188  090D  343F               	retlw	63
  3189  090E  341F               	retlw	31
  3190  090F  3420               	retlw	32
  3191  0910  3440               	retlw	64
  3192  0911  3420               	retlw	32
  3193  0912  341F               	retlw	31
  3194  0913  343F               	retlw	63
  3195  0914  3440               	retlw	64
  3196  0915  3438               	retlw	56
  3197  0916  3440               	retlw	64
  3198  0917  343F               	retlw	63
  3199  0918  3463               	retlw	99
  3200  0919  3414               	retlw	20
  3201  091A  3408               	retlw	8
  3202  091B  3414               	retlw	20
  3203  091C  3463               	retlw	99
  3204  091D  3403               	retlw	3
  3205  091E  3404               	retlw	4
  3206  091F  3478               	retlw	120
  3207  0920  3404               	retlw	4
  3208  0921  3403               	retlw	3
  3209  0922  3461               	retlw	97
  3210  0923  3459               	retlw	89
  3211  0924  3449               	retlw	73
  3212  0925  344D               	retlw	77
  3213  0926  3443               	retlw	67
  3214  0927  3400               	retlw	0
  3215  0928  347F               	retlw	127
  3216  0929  3441               	retlw	65
  3217  092A  3441               	retlw	65
  3218  092B  3441               	retlw	65
  3219  092C  3402               	retlw	2
  3220  092D  3404               	retlw	4
  3221  092E  3408               	retlw	8
  3222  092F  3410               	retlw	16
  3223  0930  3420               	retlw	32
  3224  0931  3400               	retlw	0
  3225  0932  3441               	retlw	65
  3226  0933  3441               	retlw	65
  3227  0934  3441               	retlw	65
  3228  0935  347F               	retlw	127
  3229  0936  3404               	retlw	4
  3230  0937  3402               	retlw	2
  3231  0938  3401               	retlw	1
  3232  0939  3402               	retlw	2
  3233  093A  3404               	retlw	4
  3234  093B  3440               	retlw	64
  3235  093C  3440               	retlw	64
  3236  093D  3440               	retlw	64
  3237  093E  3440               	retlw	64
  3238  093F  3440               	retlw	64
  3239  0940  3400               	retlw	0
  3240  0941  3403               	retlw	3
  3241  0942  3407               	retlw	7
  3242  0943  3408               	retlw	8
  3243  0944  3400               	retlw	0
  3244  0945  3420               	retlw	32
  3245  0946  3454               	retlw	84
  3246  0947  3454               	retlw	84
  3247  0948  3478               	retlw	120
  3248  0949  3440               	retlw	64
  3249  094A  347F               	retlw	127
  3250  094B  3428               	retlw	40
  3251  094C  3444               	retlw	68
  3252  094D  3444               	retlw	68
  3253  094E  3438               	retlw	56
  3254  094F  3438               	retlw	56
  3255  0950  3444               	retlw	68
  3256  0951  3444               	retlw	68
  3257  0952  3444               	retlw	68
  3258  0953  3428               	retlw	40
  3259  0954  3438               	retlw	56
  3260  0955  3444               	retlw	68
  3261  0956  3444               	retlw	68
  3262  0957  3428               	retlw	40
  3263  0958  347F               	retlw	127
  3264  0959  3438               	retlw	56
  3265  095A  3454               	retlw	84
  3266  095B  3454               	retlw	84
  3267  095C  3454               	retlw	84
  3268  095D  3418               	retlw	24
  3269  095E  3400               	retlw	0
  3270  095F  3408               	retlw	8
  3271  0960  347E               	retlw	126
  3272  0961  3409               	retlw	9
  3273  0962  3402               	retlw	2
  3274  0963  3418               	retlw	24
  3275  0964  34A4               	retlw	164
  3276  0965  34A4               	retlw	164
  3277  0966  349C               	retlw	156
  3278  0967  3478               	retlw	120
  3279  0968  347F               	retlw	127
  3280  0969  3408               	retlw	8
  3281  096A  3404               	retlw	4
  3282  096B  3404               	retlw	4
  3283  096C  3478               	retlw	120
  3284  096D  3400               	retlw	0
  3285  096E  3444               	retlw	68
  3286  096F  347D               	retlw	125
  3287  0970  3440               	retlw	64
  3288  0971  3400               	retlw	0
  3289  0972  3420               	retlw	32
  3290  0973  3440               	retlw	64
  3291  0974  3440               	retlw	64
  3292  0975  343D               	retlw	61
  3293  0976  3400               	retlw	0
  3294  0977  347F               	retlw	127
  3295  0978  3410               	retlw	16
  3296  0979  3428               	retlw	40
  3297  097A  3444               	retlw	68
  3298  097B  3400               	retlw	0
  3299  097C  3400               	retlw	0
  3300  097D  3441               	retlw	65
  3301  097E  347F               	retlw	127
  3302  097F  3440               	retlw	64
  3303  0980  3400               	retlw	0
  3304  0981  347C               	retlw	124
  3305  0982  3404               	retlw	4
  3306  0983  3478               	retlw	120
  3307  0984  3404               	retlw	4
  3308  0985  3478               	retlw	120
  3309  0986  347C               	retlw	124
  3310  0987  3408               	retlw	8
  3311  0988  3404               	retlw	4
  3312  0989  3404               	retlw	4
  3313  098A  3478               	retlw	120
  3314  098B  3438               	retlw	56
  3315  098C  3444               	retlw	68
  3316  098D  3444               	retlw	68
  3317  098E  3444               	retlw	68
  3318  098F  3438               	retlw	56
  3319  0990  34FC               	retlw	252
  3320  0991  3418               	retlw	24
  3321  0992  3424               	retlw	36
  3322  0993  3424               	retlw	36
  3323  0994  3418               	retlw	24
  3324  0995  3418               	retlw	24
  3325  0996  3424               	retlw	36
  3326  0997  3424               	retlw	36
  3327  0998  3418               	retlw	24
  3328  0999  34FC               	retlw	252
  3329  099A  347C               	retlw	124
  3330  099B  3408               	retlw	8
  3331  099C  3404               	retlw	4
  3332  099D  3404               	retlw	4
  3333  099E  3408               	retlw	8
  3334  099F  3448               	retlw	72
  3335  09A0  3454               	retlw	84
  3336  09A1  3454               	retlw	84
  3337  09A2  3454               	retlw	84
  3338  09A3  3424               	retlw	36
  3339  09A4  3404               	retlw	4
  3340  09A5  3404               	retlw	4
  3341  09A6  343F               	retlw	63
  3342  09A7  3444               	retlw	68
  3343  09A8  3424               	retlw	36
  3344  09A9  343C               	retlw	60
  3345  09AA  3440               	retlw	64
  3346  09AB  3440               	retlw	64
  3347  09AC  3420               	retlw	32
  3348  09AD  347C               	retlw	124
  3349  09AE  341C               	retlw	28
  3350  09AF  3420               	retlw	32
  3351  09B0  3440               	retlw	64
  3352  09B1  3420               	retlw	32
  3353  09B2  341C               	retlw	28
  3354  09B3  343C               	retlw	60
  3355  09B4  3440               	retlw	64
  3356  09B5  3430               	retlw	48
  3357  09B6  3440               	retlw	64
  3358  09B7  343C               	retlw	60
  3359  09B8  3444               	retlw	68
  3360  09B9  3428               	retlw	40
  3361  09BA  3410               	retlw	16
  3362  09BB  3428               	retlw	40
  3363  09BC  3444               	retlw	68
  3364  09BD  344C               	retlw	76
  3365  09BE  3490               	retlw	144
  3366  09BF  3490               	retlw	144
  3367  09C0  3490               	retlw	144
  3368  09C1  347C               	retlw	124
  3369  09C2  3444               	retlw	68
  3370  09C3  3464               	retlw	100
  3371  09C4  3454               	retlw	84
  3372  09C5  344C               	retlw	76
  3373  09C6  3444               	retlw	68
  3374  09C7  3400               	retlw	0
  3375  09C8  3408               	retlw	8
  3376  09C9  3436               	retlw	54
  3377  09CA  3441               	retlw	65
  3378  09CB  3400               	retlw	0
  3379  09CC  3400               	retlw	0
  3380  09CD  3400               	retlw	0
  3381  09CE  3477               	retlw	119
  3382  09CF  3400               	retlw	0
  3383  09D0  3400               	retlw	0
  3384  09D1  3400               	retlw	0
  3385  09D2  3441               	retlw	65
  3386  09D3  3436               	retlw	54
  3387  09D4  3408               	retlw	8
  3388  09D5  3400               	retlw	0
  3389  09D6  3402               	retlw	2
  3390  09D7  3401               	retlw	1
  3391  09D8  3402               	retlw	2
  3392  09D9  3404               	retlw	4
  3393  09DA  3402               	retlw	2
  3394  09DB                     __end_of_Font2:	
  3395  001F                     _T2CONbits	set	31
  3396  001F                     _T2CON	set	31
  3397  0011                     _PIR1bits	set	17
  3398  001D                     _TMR2	set	29
  3399  001E                     _PR2	set	30
  3400  008E                     _TRISC	set	142
  3401  008D                     _TRISB	set	141
  3402  008C                     _TRISA	set	140
  3403  0097                     _WDTCON	set	151
  3404  009D                     _ADCON0bits	set	157
  3405  009C                     _ADRESH	set	156
  3406  009B                     _ADRESL	set	155
  3407  009F                     _ADACT	set	159
  3408  009E                     _ADCON1	set	158
  3409  009D                     _ADCON0	set	157
  3410  010D                     _LATBbits	set	269
  3411  010C                     _LATAbits	set	268
  3412  010E                     _LATCbits	set	270
  3413  010E                     _LATC	set	270
  3414  010D                     _LATB	set	269
  3415  010C                     _LATA	set	268
  3416  018C                     _ANSELA	set	396
  3417  018D                     _ANSELB	set	397
  3418  018E                     _ANSELC	set	398
  3419  020E                     _WPUC	set	526
  3420  020C                     _WPUA	set	524
  3421  020D                     _WPUB	set	525
  3422  0214                     _SSP1STATbits	set	532
  3423  0211                     _SSP1BUF	set	529
  3424  0215                     _SSP1CON1bits	set	533
  3425  0212                     _SSP1ADD	set	530
  3426  0215                     _SSP1CON1	set	533
  3427  0214                     _SSP1STAT	set	532
  3428  028E                     _ODCONC	set	654
  3429  028D                     _ODCONB	set	653
  3430  028C                     _ODCONA	set	652
  3431  0293                     _CCP1CONbits	set	659
  3432  029F                     _CCPTMRSbits	set	671
  3433  0291                     _CCPR1L	set	657
  3434  0292                     _CCPR1H	set	658
  3435  0293                     _CCP1CON	set	659
  3436  030E                     _SLRCONC	set	782
  3437  030D                     _SLRCONB	set	781
  3438  030C                     _SLRCONA	set	780
  3439  0916                     _PMD5	set	2326
  3440  0915                     _PMD4	set	2325
  3441  0914                     _PMD3	set	2324
  3442  0913                     _PMD2	set	2323
  3443  0912                     _PMD1	set	2322
  3444  0911                     _PMD0	set	2321
  3445  091E                     _OSCTUNE	set	2334
  3446  091F                     _OSCFRQ	set	2335
  3447  091D                     _OSCEN	set	2333
  3448  091B                     _OSCCON3	set	2331
  3449  0919                     _OSCCON1	set	2329
  3450  0E21                     _SSP1DATPPS	set	3617
  3451  0E20                     _SSP1CLKPPS	set	3616
  3452  0EA5                     _RC5PPS	set	3749
  3453  0E9F                     _RB7PPS	set	3743
  3454  0EA0                     _RC0PPS	set	3744
  3455  09DB                     STR_1:	
  3456  09DB  3448               	retlw	72	;'H'
  3457  09DC  3465               	retlw	101	;'e'
  3458  09DD  346C               	retlw	108	;'l'
  3459  09DE  346C               	retlw	108	;'l'
  3460  09DF  346F               	retlw	111	;'o'
  3461  09E0  3420               	retlw	32	;' '
  3462  09E1  3457               	retlw	87	;'W'
  3463  09E2  346F               	retlw	111	;'o'
  3464  09E3  3472               	retlw	114	;'r'
  3465  09E4  346C               	retlw	108	;'l'
  3466  09E5  3464               	retlw	100	;'d'
  3467  09E6  3400               	retlw	0
  3468                           
  3469                           	psect	stringtext3
  3470  0000                     __pstringtext3:	
  3471                           
  3472                           ; #config settings
  3473  0000                     
  3474                           	psect	cinit
  3475  07E6                     start_initialization:	
  3476  07E6                     __initialization:	
  3477                           
  3478                           ; Initialize objects allocated to BANK0
  3479  07E6  308E               	movlw	low __pidataBANK0
  3480  07E7  0084               	movwf	4
  3481  07E8  3086               	movlw	(high __pidataBANK0)| (0+128)
  3482  07E9  0085               	movwf	5
  3483  07EA  302C               	movlw	low __pdataBANK0
  3484  07EB  0086               	movwf	6
  3485  07EC  3000               	movlw	high __pdataBANK0
  3486  07ED  0087               	movwf	7
  3487  07EE  3007               	movlw	7
  3488  07EF  3186  2681         	fcall	init_ram
  3489                           
  3490                           ; Clear objects allocated to BANK0
  3491  07F1  01A0               	clrf	__pbssBANK0& (0+127)
  3492  07F2  01A1               	clrf	(__pbssBANK0+1)& (0+127)
  3493  07F3  01A2               	clrf	(__pbssBANK0+2)& (0+127)
  3494  07F4  01A3               	clrf	(__pbssBANK0+3)& (0+127)
  3495  07F5  01A4               	clrf	(__pbssBANK0+4)& (0+127)
  3496  07F6  01A5               	clrf	(__pbssBANK0+5)& (0+127)
  3497  07F7  01A6               	clrf	(__pbssBANK0+6)& (0+127)
  3498  07F8  01A7               	clrf	(__pbssBANK0+7)& (0+127)
  3499  07F9  01A8               	clrf	(__pbssBANK0+8)& (0+127)
  3500  07FA  01A9               	clrf	(__pbssBANK0+9)& (0+127)
  3501  07FB  01AA               	clrf	(__pbssBANK0+10)& (0+127)
  3502  07FC  01AB               	clrf	(__pbssBANK0+11)& (0+127)
  3503  07FD                     end_of_initialization:	
  3504                           ;End of C runtime variable initialization code
  3505                           
  3506  07FD                     __end_of__initialization:	
  3507  07FD  0020               	movlb	0
  3508  07FE  3186  2E87         	ljmp	_main	;jump to C main() function
  3509                           
  3510                           	psect	bssBANK0
  3511  0020                     __pbssBANK0:	
  3512  0020                     _adcResult2:	
  3513  0020                     	ds	2
  3514  0022                     _pause:	
  3515  0022                     	ds	1
  3516  0023                     _state:	
  3517  0023                     	ds	1
  3518  0024                     _button:	
  3519  0024                     	ds	1
  3520  0025                     _switch1:	
  3521  0025                     	ds	1
  3522  0026                     _delayVal:	
  3523  0026                     	ds	1
  3524  0027                     _rotateVal:	
  3525  0027                     	ds	1
  3526  0028                     _secondCount:	
  3527  0028                     	ds	1
  3528  0029                     _adcResult:	
  3529  0029                     	ds	1
  3530  002A                     _rowstart:	
  3531  002A                     	ds	1
  3532  002B                     _colstart:	
  3533  002B                     	ds	1
  3534                           
  3535                           	psect	dataBANK0
  3536  002C                     __pdataBANK0:	
  3537  002C                     SPI@F6926:	
  3538  002C                     	ds	2
  3539  002E                     _txt:	
  3540  002E                     	ds	2
  3541  0030                     _wrap:	
  3542  0030                     	ds	2
  3543  0032                     _event:	
  3544  0032                     	ds	1
  3545                           
  3546                           	psect	inittext
  3547  0681                     init_ram:	
  3548  0681  00FE               	movwf	126
  3549  0682                     initloop:	
  3550  0682  0012               	moviw fsr0++
  3551  0683  001E               	movwi fsr1++
  3552  0684  0BFE               	decfsz	126,f
  3553  0685  2E82               	goto	initloop
  3554  0686  3400               	retlw	0
  3555                           
  3556                           	psect	cstackCOMMON
  3557  0070                     __pcstackCOMMON:	
  3558  0070                     ?_PMD_Initialize:	
  3559  0070                     ??_PMD_Initialize:	
  3560                           ; 1 bytes @ 0x0
  3561                           
  3562  0070                     ?_PIN_MANAGER_Initialize:	
  3563                           ; 1 bytes @ 0x0
  3564                           
  3565  0070                     ??_PIN_MANAGER_Initialize:	
  3566                           ; 1 bytes @ 0x0
  3567                           
  3568  0070                     ?_OSCILLATOR_Initialize:	
  3569                           ; 1 bytes @ 0x0
  3570                           
  3571  0070                     ??_OSCILLATOR_Initialize:	
  3572                           ; 1 bytes @ 0x0
  3573                           
  3574  0070                     ?_WDT_Initialize:	
  3575                           ; 1 bytes @ 0x0
  3576                           
  3577  0070                     ??_WDT_Initialize:	
  3578                           ; 1 bytes @ 0x0
  3579                           
  3580  0070                     ?_SPI:	
  3581                           ; 1 bytes @ 0x0
  3582                           
  3583  0070                     ?_PWM:	
  3584                           ; 1 bytes @ 0x0
  3585                           
  3586  0070                     ?_PWM_Output_D7_Enable:	
  3587                           ; 1 bytes @ 0x0
  3588                           
  3589  0070                     ??_PWM_Output_D7_Enable:	
  3590                           ; 1 bytes @ 0x0
  3591                           
  3592  0070                     ?_PWM_Output_D7_Disable:	
  3593                           ; 1 bytes @ 0x0
  3594                           
  3595  0070                     ??_PWM_Output_D7_Disable:	
  3596                           ; 1 bytes @ 0x0
  3597                           
  3598  0070                     ?_SPI1_Initialize:	
  3599                           ; 1 bytes @ 0x0
  3600                           
  3601  0070                     ??_SPI1_Initialize:	
  3602                           ; 1 bytes @ 0x0
  3603                           
  3604  0070                     ?_SPI1_Exchange8bit:	
  3605                           ; 1 bytes @ 0x0
  3606                           
  3607  0070                     ??_SPI1_Exchange8bit:	
  3608                           ; 1 bytes @ 0x0
  3609                           
  3610  0070                     ?_PWM1_Initialize:	
  3611                           ; 1 bytes @ 0x0
  3612                           
  3613  0070                     ??_PWM1_Initialize:	
  3614                           ; 1 bytes @ 0x0
  3615                           
  3616  0070                     ?_PWM1_LoadDutyValue:	
  3617                           ; 1 bytes @ 0x0
  3618                           
  3619  0070                     ?_TMR2_Initialize:	
  3620                           ; 1 bytes @ 0x0
  3621                           
  3622  0070                     ??_TMR2_Initialize:	
  3623                           ; 1 bytes @ 0x0
  3624                           
  3625  0070                     ?_TMR2_StartTimer:	
  3626                           ; 1 bytes @ 0x0
  3627                           
  3628  0070                     ??_TMR2_StartTimer:	
  3629                           ; 1 bytes @ 0x0
  3630                           
  3631  0070                     ?_ADC_Initialize:	
  3632                           ; 1 bytes @ 0x0
  3633                           
  3634  0070                     ??_ADC_Initialize:	
  3635                           ; 1 bytes @ 0x0
  3636                           
  3637  0070                     ?_SYSTEM_Initialize:	
  3638                           ; 1 bytes @ 0x0
  3639                           
  3640  0070                     ??_SYSTEM_Initialize:	
  3641                           ; 1 bytes @ 0x0
  3642                           
  3643  0070                     ?_main:	
  3644                           ; 1 bytes @ 0x0
  3645                           
  3646  0070                     ?_ADC_GetConversion:	
  3647                           ; 1 bytes @ 0x0
  3648                           
  3649  0070                     SPI1_Exchange8bit@data:	
  3650                           ; 2 bytes @ 0x0
  3651                           
  3652  0070                     PWM1_LoadDutyValue@dutyValue:	
  3653                           ; 1 bytes @ 0x0
  3654                           
  3655                           
  3656                           ; 2 bytes @ 0x0
  3657  0070                     	ds	1
  3658  0071                     ?_SPI1_Exchange8bitBuffer:	
  3659  0071                     SPI1_Exchange8bitBuffer@bufLen:	
  3660                           ; 1 bytes @ 0x1
  3661                           
  3662                           
  3663                           ; 1 bytes @ 0x1
  3664  0071                     	ds	1
  3665  0072                     ??_PWM1_LoadDutyValue:	
  3666  0072                     ??_ADC_GetConversion:	
  3667                           ; 1 bytes @ 0x2
  3668                           
  3669  0072                     SPI1_Exchange8bitBuffer@dataOut:	
  3670                           ; 1 bytes @ 0x2
  3671                           
  3672                           
  3673                           ; 1 bytes @ 0x2
  3674  0072                     	ds	1
  3675  0073                     ??_SPI1_Exchange8bitBuffer:	
  3676  0073                     ADC_GetConversion@channel:	
  3677                           ; 1 bytes @ 0x3
  3678                           
  3679                           
  3680                           ; 1 bytes @ 0x3
  3681  0073                     	ds	1
  3682  0074                     ??_PWM:	
  3683                           
  3684                           ; 1 bytes @ 0x4
  3685  0074                     	ds	2
  3686  0076                     SPI1_Exchange8bitBuffer@dataIn:	
  3687                           
  3688                           ; 1 bytes @ 0x6
  3689  0076                     	ds	1
  3690  0077                     SPI1_Exchange8bitBuffer@bytesWritten:	
  3691                           
  3692                           ; 1 bytes @ 0x7
  3693  0077                     	ds	1
  3694  0078                     ??_SPI:	
  3695                           
  3696                           ; 1 bytes @ 0x8
  3697  0078                     	ds	3
  3698  007B                     SPI@myWriteBuffer:	
  3699                           
  3700                           ; 2 bytes @ 0xB
  3701  007B                     	ds	2
  3702  007D                     SPI@total:	
  3703                           
  3704                           ; 1 bytes @ 0xD
  3705  007D                     	ds	1
  3706  007E                     ??_main:	
  3707                           
  3708                           	psect	maintext
  3709  0687                     __pmaintext:	
  3710                           ; 1 bytes @ 0xE
  3711 ;;
  3712 ;;Main: autosize = 0, tempsize = 0, incstack = 0, save=0
  3713 ;;
  3714 ;; *************** function _main *****************
  3715 ;; Defined at:
  3716 ;;		line 250 in file "main.c"
  3717 ;; Parameters:    Size  Location     Type
  3718 ;;		None
  3719 ;; Auto vars:     Size  Location     Type
  3720 ;;		None
  3721 ;; Return value:  Size  Location     Type
  3722 ;;                  1    wreg      void 
  3723 ;; Registers used:
  3724 ;;		wreg, fsr1l, fsr1h, status,2, status,0, pclath, cstack
  3725 ;; Tracked objects:
  3726 ;;		On entry : B1F/0
  3727 ;;		On exit  : 0/0
  3728 ;;		Unchanged: 0/0
  3729 ;; Data sizes:     COMMON   BANK0   BANK1   BANK2   BANK3   BANK4   BANK5   BANK6   BANK7   BANK8   BANK9  BANK10  BANK1
      +1  BANK12
  3730 ;;      Params:         0       0       0       0       0       0       0       0       0       0       0       0       
      +0       0
  3731 ;;      Locals:         0       0       0       0       0       0       0       0       0       0       0       0       
      +0       0
  3732 ;;      Temps:          0       0       0       0       0       0       0       0       0       0       0       0       
      +0       0
  3733 ;;      Totals:         0       0       0       0       0       0       0       0       0       0       0       0       
      +0       0
  3734 ;;Total ram usage:        0 bytes
  3735 ;; Hardware stack levels required when called:    3
  3736 ;; This function calls:
  3737 ;;		_SPI
  3738 ;;		_SYSTEM_Initialize
  3739 ;; This function is called by:
  3740 ;;		Startup code after reset
  3741 ;; This function uses a non-reentrant model
  3742 ;;
  3743                           
  3744                           
  3745                           ;psect for function _main
  3746  0687                     _main:	
  3747                           
  3748                           ;main.c: 253:     SYSTEM_Initialize();
  3749                           
  3750                           ;incstack = 0
  3751                           ; Regs used in _main: [wreg+fsr1l+fsr1h+status,2+status,0+pclath+cstack]
  3752  0687  3186  26F4  3186   	fcall	_SYSTEM_Initialize
  3753  068A                     l1778:	
  3754                           
  3755                           ;main.c: 261:         SPI();
  3756  068A  3187  273A  3186   	fcall	_SPI
  3757  068D  2E8A               	goto	l1778
  3758  068E                     __end_of_main:	
  3759                           
  3760                           	psect	text1
  3761  06F4                     __ptext1:	
  3762 ;; *************** function _SYSTEM_Initialize *****************
  3763 ;; Defined at:
  3764 ;;		line 50 in file "mcc_generated_files/mcc.c"
  3765 ;; Parameters:    Size  Location     Type
  3766 ;;		None
  3767 ;; Auto vars:     Size  Location     Type
  3768 ;;		None
  3769 ;; Return value:  Size  Location     Type
  3770 ;;                  1    wreg      void 
  3771 ;; Registers used:
  3772 ;;		wreg, status,2, status,0, pclath, cstack
  3773 ;; Tracked objects:
  3774 ;;		On entry : 0/0
  3775 ;;		On exit  : 0/0
  3776 ;;		Unchanged: 0/0
  3777 ;; Data sizes:     COMMON   BANK0   BANK1   BANK2   BANK3   BANK4   BANK5   BANK6   BANK7   BANK8   BANK9  BANK10  BANK1
      +1  BANK12
  3778 ;;      Params:         0       0       0       0       0       0       0       0       0       0       0       0       
      +0       0
  3779 ;;      Locals:         0       0       0       0       0       0       0       0       0       0       0       0       
      +0       0
  3780 ;;      Temps:          0       0       0       0       0       0       0       0       0       0       0       0       
      +0       0
  3781 ;;      Totals:         0       0       0       0       0       0       0       0       0       0       0       0       
      +0       0
  3782 ;;Total ram usage:        0 bytes
  3783 ;; Hardware stack levels used:    1
  3784 ;; Hardware stack levels required when called:    1
  3785 ;; This function calls:
  3786 ;;		_ADC_Initialize
  3787 ;;		_OSCILLATOR_Initialize
  3788 ;;		_PIN_MANAGER_Initialize
  3789 ;;		_PMD_Initialize
  3790 ;;		_PWM1_Initialize
  3791 ;;		_SPI1_Initialize
  3792 ;;		_TMR2_Initialize
  3793 ;;		_WDT_Initialize
  3794 ;; This function is called by:
  3795 ;;		_main
  3796 ;; This function uses a non-reentrant model
  3797 ;;
  3798                           
  3799                           
  3800                           ;psect for function _SYSTEM_Initialize
  3801  06F4                     _SYSTEM_Initialize:	
  3802                           
  3803                           ;mcc_generated_files/mcc.c: 53:     PMD_Initialize();
  3804                           
  3805                           ;incstack = 0
  3806                           ; Regs used in _SYSTEM_Initialize: [wreg+status,2+status,0+pclath+cstack]
  3807  06F4  3186  26A5  3186   	fcall	_PMD_Initialize
  3808                           
  3809                           ;mcc_generated_files/mcc.c: 54:     PIN_MANAGER_Initialize();
  3810  06F7  3187  2768  3186   	fcall	_PIN_MANAGER_Initialize
  3811                           
  3812                           ;mcc_generated_files/mcc.c: 55:     OSCILLATOR_Initialize();
  3813  06FA  3186  269D  3186   	fcall	_OSCILLATOR_Initialize
  3814                           
  3815                           ;mcc_generated_files/mcc.c: 56:     WDT_Initialize();
  3816  06FD  3186  2677  3186   	fcall	_WDT_Initialize
  3817                           
  3818                           ;mcc_generated_files/mcc.c: 57:     SPI1_Initialize();
  3819  0700  3186  267B  3186   	fcall	_SPI1_Initialize
  3820                           
  3821                           ;mcc_generated_files/mcc.c: 58:     PWM1_Initialize();
  3822  0703  3186  26B5  3186   	fcall	_PWM1_Initialize
  3823                           
  3824                           ;mcc_generated_files/mcc.c: 59:     ADC_Initialize();
  3825  0706  3186  2695  3186   	fcall	_ADC_Initialize
  3826                           
  3827                           ;mcc_generated_files/mcc.c: 60:     TMR2_Initialize();
  3828  0709  3186  26AD         	fcall	_TMR2_Initialize
  3829  070B  0008               	return
  3830  070C                     __end_of_SYSTEM_Initialize:	
  3831                           
  3832                           	psect	text2
  3833  0677                     __ptext2:	
  3834 ;; *************** function _WDT_Initialize *****************
  3835 ;; Defined at:
  3836 ;;		line 77 in file "mcc_generated_files/mcc.c"
  3837 ;; Parameters:    Size  Location     Type
  3838 ;;		None
  3839 ;; Auto vars:     Size  Location     Type
  3840 ;;		None
  3841 ;; Return value:  Size  Location     Type
  3842 ;;                  1    wreg      void 
  3843 ;; Registers used:
  3844 ;;		wreg
  3845 ;; Tracked objects:
  3846 ;;		On entry : 0/0
  3847 ;;		On exit  : 0/0
  3848 ;;		Unchanged: 0/0
  3849 ;; Data sizes:     COMMON   BANK0   BANK1   BANK2   BANK3   BANK4   BANK5   BANK6   BANK7   BANK8   BANK9  BANK10  BANK1
      +1  BANK12
  3850 ;;      Params:         0       0       0       0       0       0       0       0       0       0       0       0       
      +0       0
  3851 ;;      Locals:         0       0       0       0       0       0       0       0       0       0       0       0       
      +0       0
  3852 ;;      Temps:          0       0       0       0       0       0       0       0       0       0       0       0       
      +0       0
  3853 ;;      Totals:         0       0       0       0       0       0       0       0       0       0       0       0       
      +0       0
  3854 ;;Total ram usage:        0 bytes
  3855 ;; Hardware stack levels used:    1
  3856 ;; This function calls:
  3857 ;;		Nothing
  3858 ;; This function is called by:
  3859 ;;		_SYSTEM_Initialize
  3860 ;; This function uses a non-reentrant model
  3861 ;;
  3862                           
  3863                           
  3864                           ;psect for function _WDT_Initialize
  3865  0677                     _WDT_Initialize:	
  3866                           
  3867                           ;mcc_generated_files/mcc.c: 80:     WDTCON = 0x18;
  3868                           
  3869                           ;incstack = 0
  3870                           ; Regs used in _WDT_Initialize: [wreg]
  3871  0677  3018               	movlw	24
  3872  0678  0021               	movlb	1	; select bank1
  3873  0679  0097               	movwf	23	;volatile
  3874  067A  0008               	return
  3875  067B                     __end_of_WDT_Initialize:	
  3876                           
  3877                           	psect	text3
  3878  06AD                     __ptext3:	
  3879 ;; *************** function _TMR2_Initialize *****************
  3880 ;; Defined at:
  3881 ;;		line 62 in file "mcc_generated_files/tmr2.c"
  3882 ;; Parameters:    Size  Location     Type
  3883 ;;		None
  3884 ;; Auto vars:     Size  Location     Type
  3885 ;;		None
  3886 ;; Return value:  Size  Location     Type
  3887 ;;                  1    wreg      void 
  3888 ;; Registers used:
  3889 ;;		wreg, status,2
  3890 ;; Tracked objects:
  3891 ;;		On entry : 0/0
  3892 ;;		On exit  : 0/0
  3893 ;;		Unchanged: 0/0
  3894 ;; Data sizes:     COMMON   BANK0   BANK1   BANK2   BANK3   BANK4   BANK5   BANK6   BANK7   BANK8   BANK9  BANK10  BANK1
      +1  BANK12
  3895 ;;      Params:         0       0       0       0       0       0       0       0       0       0       0       0       
      +0       0
  3896 ;;      Locals:         0       0       0       0       0       0       0       0       0       0       0       0       
      +0       0
  3897 ;;      Temps:          0       0       0       0       0       0       0       0       0       0       0       0       
      +0       0
  3898 ;;      Totals:         0       0       0       0       0       0       0       0       0       0       0       0       
      +0       0
  3899 ;;Total ram usage:        0 bytes
  3900 ;; Hardware stack levels used:    1
  3901 ;; This function calls:
  3902 ;;		Nothing
  3903 ;; This function is called by:
  3904 ;;		_SYSTEM_Initialize
  3905 ;; This function uses a non-reentrant model
  3906 ;;
  3907                           
  3908                           
  3909                           ;psect for function _TMR2_Initialize
  3910  06AD                     _TMR2_Initialize:	
  3911                           
  3912                           ;mcc_generated_files/tmr2.c: 67:     PR2 = 0xFF;
  3913                           
  3914                           ;incstack = 0
  3915                           ; Regs used in _TMR2_Initialize: [wreg+status,2]
  3916  06AD  30FF               	movlw	255
  3917  06AE  0020               	movlb	0	; select bank0
  3918  06AF  009E               	movwf	30	;volatile
  3919                           
  3920                           ;mcc_generated_files/tmr2.c: 70:     TMR2 = 0x00;
  3921  06B0  019D               	clrf	29	;volatile
  3922                           
  3923                           ;mcc_generated_files/tmr2.c: 73:     PIR1bits.TMR2IF = 0;
  3924  06B1  1091               	bcf	17,1	;volatile
  3925                           
  3926                           ;mcc_generated_files/tmr2.c: 76:     T2CON = 0x04;
  3927  06B2  3004               	movlw	4
  3928  06B3  009F               	movwf	31	;volatile
  3929  06B4  0008               	return
  3930  06B5                     __end_of_TMR2_Initialize:	
  3931                           
  3932                           	psect	text4
  3933  06B5                     __ptext4:	
  3934 ;; *************** function _PWM1_Initialize *****************
  3935 ;; Defined at:
  3936 ;;		line 64 in file "mcc_generated_files/pwm1.c"
  3937 ;; Parameters:    Size  Location     Type
  3938 ;;		None
  3939 ;; Auto vars:     Size  Location     Type
  3940 ;;		None
  3941 ;; Return value:  Size  Location     Type
  3942 ;;                  1    wreg      void 
  3943 ;; Registers used:
  3944 ;;		wreg, status,2, status,0
  3945 ;; Tracked objects:
  3946 ;;		On entry : 0/0
  3947 ;;		On exit  : 0/0
  3948 ;;		Unchanged: 0/0
  3949 ;; Data sizes:     COMMON   BANK0   BANK1   BANK2   BANK3   BANK4   BANK5   BANK6   BANK7   BANK8   BANK9  BANK10  BANK1
      +1  BANK12
  3950 ;;      Params:         0       0       0       0       0       0       0       0       0       0       0       0       
      +0       0
  3951 ;;      Locals:         0       0       0       0       0       0       0       0       0       0       0       0       
      +0       0
  3952 ;;      Temps:          0       0       0       0       0       0       0       0       0       0       0       0       
      +0       0
  3953 ;;      Totals:         0       0       0       0       0       0       0       0       0       0       0       0       
      +0       0
  3954 ;;Total ram usage:        0 bytes
  3955 ;; Hardware stack levels used:    1
  3956 ;; This function calls:
  3957 ;;		Nothing
  3958 ;; This function is called by:
  3959 ;;		_SYSTEM_Initialize
  3960 ;; This function uses a non-reentrant model
  3961 ;;
  3962                           
  3963                           
  3964                           ;psect for function _PWM1_Initialize
  3965  06B5                     _PWM1_Initialize:	
  3966                           
  3967                           ;mcc_generated_files/pwm1.c: 69:  CCP1CON = 0x8F;
  3968                           
  3969                           ;incstack = 0
  3970                           ; Regs used in _PWM1_Initialize: [wreg+status,2+status,0]
  3971  06B5  308F               	movlw	143
  3972  06B6  0025               	movlb	5	; select bank5
  3973  06B7  0093               	movwf	19	;volatile
  3974                           
  3975                           ;mcc_generated_files/pwm1.c: 72:  CCPR1H = 0x00;
  3976  06B8  0192               	clrf	18	;volatile
  3977                           
  3978                           ;mcc_generated_files/pwm1.c: 75:  CCPR1L = 0x00;
  3979  06B9  0191               	clrf	17	;volatile
  3980                           
  3981                           ;mcc_generated_files/pwm1.c: 78:  CCPTMRSbits.C1TSEL = 0x1;
  3982  06BA  081F               	movf	31,w	;volatile
  3983  06BB  39FC               	andlw	-4
  3984  06BC  3801               	iorlw	1
  3985  06BD  009F               	movwf	31	;volatile
  3986  06BE  0008               	return
  3987  06BF                     __end_of_PWM1_Initialize:	
  3988                           
  3989                           	psect	text5
  3990  06A5                     __ptext5:	
  3991 ;; *************** function _PMD_Initialize *****************
  3992 ;; Defined at:
  3993 ;;		line 83 in file "mcc_generated_files/mcc.c"
  3994 ;; Parameters:    Size  Location     Type
  3995 ;;		None
  3996 ;; Auto vars:     Size  Location     Type
  3997 ;;		None
  3998 ;; Return value:  Size  Location     Type
  3999 ;;                  1    wreg      void 
  4000 ;; Registers used:
  4001 ;;		status,2
  4002 ;; Tracked objects:
  4003 ;;		On entry : 0/0
  4004 ;;		On exit  : 0/0
  4005 ;;		Unchanged: 0/0
  4006 ;; Data sizes:     COMMON   BANK0   BANK1   BANK2   BANK3   BANK4   BANK5   BANK6   BANK7   BANK8   BANK9  BANK10  BANK1
      +1  BANK12
  4007 ;;      Params:         0       0       0       0       0       0       0       0       0       0       0       0       
      +0       0
  4008 ;;      Locals:         0       0       0       0       0       0       0       0       0       0       0       0       
      +0       0
  4009 ;;      Temps:          0       0       0       0       0       0       0       0       0       0       0       0       
      +0       0
  4010 ;;      Totals:         0       0       0       0       0       0       0       0       0       0       0       0       
      +0       0
  4011 ;;Total ram usage:        0 bytes
  4012 ;; Hardware stack levels used:    1
  4013 ;; This function calls:
  4014 ;;		Nothing
  4015 ;; This function is called by:
  4016 ;;		_SYSTEM_Initialize
  4017 ;; This function uses a non-reentrant model
  4018 ;;
  4019                           
  4020                           
  4021                           ;psect for function _PMD_Initialize
  4022  06A5                     _PMD_Initialize:	
  4023                           
  4024                           ;mcc_generated_files/mcc.c: 86:     PMD0 = 0x00;
  4025                           
  4026                           ;incstack = 0
  4027                           ; Regs used in _PMD_Initialize: [status,2]
  4028  06A5  0032               	movlb	18	; select bank18
  4029  06A6  0191               	clrf	17	;volatile
  4030                           
  4031                           ;mcc_generated_files/mcc.c: 88:     PMD1 = 0x00;
  4032  06A7  0192               	clrf	18	;volatile
  4033                           
  4034                           ;mcc_generated_files/mcc.c: 90:     PMD2 = 0x00;
  4035  06A8  0193               	clrf	19	;volatile
  4036                           
  4037                           ;mcc_generated_files/mcc.c: 92:     PMD3 = 0x00;
  4038  06A9  0194               	clrf	20	;volatile
  4039                           
  4040                           ;mcc_generated_files/mcc.c: 94:     PMD4 = 0x00;
  4041  06AA  0195               	clrf	21	;volatile
  4042                           
  4043                           ;mcc_generated_files/mcc.c: 96:     PMD5 = 0x00;
  4044  06AB  0196               	clrf	22	;volatile
  4045  06AC  0008               	return
  4046  06AD                     __end_of_PMD_Initialize:	
  4047                           
  4048                           	psect	text6
  4049  0768                     __ptext6:	
  4050 ;; *************** function _PIN_MANAGER_Initialize *****************
  4051 ;; Defined at:
  4052 ;;		line 55 in file "mcc_generated_files/pin_manager.c"
  4053 ;; Parameters:    Size  Location     Type
  4054 ;;		None
  4055 ;; Auto vars:     Size  Location     Type
  4056 ;;		None
  4057 ;; Return value:  Size  Location     Type
  4058 ;;                  1    wreg      void 
  4059 ;; Registers used:
  4060 ;;		wreg, status,2
  4061 ;; Tracked objects:
  4062 ;;		On entry : 0/0
  4063 ;;		On exit  : 0/0
  4064 ;;		Unchanged: 0/0
  4065 ;; Data sizes:     COMMON   BANK0   BANK1   BANK2   BANK3   BANK4   BANK5   BANK6   BANK7   BANK8   BANK9  BANK10  BANK1
      +1  BANK12
  4066 ;;      Params:         0       0       0       0       0       0       0       0       0       0       0       0       
      +0       0
  4067 ;;      Locals:         0       0       0       0       0       0       0       0       0       0       0       0       
      +0       0
  4068 ;;      Temps:          0       0       0       0       0       0       0       0       0       0       0       0       
      +0       0
  4069 ;;      Totals:         0       0       0       0       0       0       0       0       0       0       0       0       
      +0       0
  4070 ;;Total ram usage:        0 bytes
  4071 ;; Hardware stack levels used:    1
  4072 ;; This function calls:
  4073 ;;		Nothing
  4074 ;; This function is called by:
  4075 ;;		_SYSTEM_Initialize
  4076 ;; This function uses a non-reentrant model
  4077 ;;
  4078                           
  4079                           
  4080                           ;psect for function _PIN_MANAGER_Initialize
  4081  0768                     _PIN_MANAGER_Initialize:	
  4082                           
  4083                           ;mcc_generated_files/pin_manager.c: 60:     LATA = 0x00;
  4084                           
  4085                           ;incstack = 0
  4086                           ; Regs used in _PIN_MANAGER_Initialize: [wreg+status,2]
  4087  0768  0022               	movlb	2	; select bank2
  4088  0769  018C               	clrf	12	;volatile
  4089                           
  4090                           ;mcc_generated_files/pin_manager.c: 61:     LATB = 0x00;
  4091  076A  018D               	clrf	13	;volatile
  4092                           
  4093                           ;mcc_generated_files/pin_manager.c: 62:     LATC = 0x00;
  4094  076B  018E               	clrf	14	;volatile
  4095                           
  4096                           ;mcc_generated_files/pin_manager.c: 67:     TRISA = 0x27;
  4097  076C  3027               	movlw	39
  4098  076D  0021               	movlb	1	; select bank1
  4099  076E  008C               	movwf	12	;volatile
  4100                           
  4101                           ;mcc_generated_files/pin_manager.c: 68:     TRISB = 0x70;
  4102  076F  3070               	movlw	112
  4103  0770  008D               	movwf	13	;volatile
  4104                           
  4105                           ;mcc_generated_files/pin_manager.c: 69:     TRISC = 0xD6;
  4106  0771  30D6               	movlw	214
  4107  0772  008E               	movwf	14	;volatile
  4108                           
  4109                           ;mcc_generated_files/pin_manager.c: 74:     ANSELC = 0xF4;
  4110  0773  30F4               	movlw	244
  4111  0774  0023               	movlb	3	; select bank3
  4112  0775  008E               	movwf	14	;volatile
  4113                           
  4114                           ;mcc_generated_files/pin_manager.c: 75:     ANSELB = 0xF0;
  4115  0776  30F0               	movlw	240
  4116  0777  008D               	movwf	13	;volatile
  4117                           
  4118                           ;mcc_generated_files/pin_manager.c: 76:     ANSELA = 0x25;
  4119  0778  3025               	movlw	37
  4120  0779  008C               	movwf	12	;volatile
  4121                           
  4122                           ;mcc_generated_files/pin_manager.c: 81:     WPUB = 0x00;
  4123  077A  0024               	movlb	4	; select bank4
  4124  077B  018D               	clrf	13	;volatile
  4125                           
  4126                           ;mcc_generated_files/pin_manager.c: 82:     WPUA = 0x00;
  4127  077C  018C               	clrf	12	;volatile
  4128                           
  4129                           ;mcc_generated_files/pin_manager.c: 83:     WPUC = 0x00;
  4130  077D  018E               	clrf	14	;volatile
  4131                           
  4132                           ;mcc_generated_files/pin_manager.c: 88:     ODCONA = 0x00;
  4133  077E  0025               	movlb	5	; select bank5
  4134  077F  018C               	clrf	12	;volatile
  4135                           
  4136                           ;mcc_generated_files/pin_manager.c: 89:     ODCONB = 0x00;
  4137  0780  018D               	clrf	13	;volatile
  4138                           
  4139                           ;mcc_generated_files/pin_manager.c: 90:     ODCONC = 0x00;
  4140  0781  018E               	clrf	14	;volatile
  4141                           
  4142                           ;mcc_generated_files/pin_manager.c: 95:     SLRCONA = 0x37;
  4143  0782  3037               	movlw	55
  4144  0783  0026               	movlb	6	; select bank6
  4145  0784  008C               	movwf	12	;volatile
  4146                           
  4147                           ;mcc_generated_files/pin_manager.c: 96:     SLRCONB = 0xF0;
  4148  0785  30F0               	movlw	240
  4149  0786  008D               	movwf	13	;volatile
  4150                           
  4151                           ;mcc_generated_files/pin_manager.c: 97:     SLRCONC = 0xFF;
  4152  0787  30FF               	movlw	255
  4153  0788  008E               	movwf	14	;volatile
  4154                           
  4155                           ;mcc_generated_files/pin_manager.c: 106:     RC0PPS = 0x18;
  4156  0789  3018               	movlw	24
  4157  078A  003D               	movlb	29	; select bank29
  4158  078B  00A0               	movwf	32	;volatile
  4159                           
  4160                           ;mcc_generated_files/pin_manager.c: 107:     SSP1CLKPPS = 0x10;
  4161  078C  3010               	movlw	16
  4162  078D  003C               	movlb	28	; select bank28
  4163  078E  00A0               	movwf	32	;volatile
  4164                           
  4165                           ;mcc_generated_files/pin_manager.c: 108:     RB7PPS = 0x19;
  4166  078F  3019               	movlw	25
  4167  0790  003D               	movlb	29	; select bank29
  4168  0791  009F               	movwf	31	;volatile
  4169                           
  4170                           ;mcc_generated_files/pin_manager.c: 109:     SSP1DATPPS = 0x11;
  4171  0792  3011               	movlw	17
  4172  0793  003C               	movlb	28	; select bank28
  4173  0794  00A1               	movwf	33	;volatile
  4174  0795  0008               	return
  4175  0796                     __end_of_PIN_MANAGER_Initialize:	
  4176                           
  4177                           	psect	text7
  4178  069D                     __ptext7:	
  4179 ;; *************** function _OSCILLATOR_Initialize *****************
  4180 ;; Defined at:
  4181 ;;		line 63 in file "mcc_generated_files/mcc.c"
  4182 ;; Parameters:    Size  Location     Type
  4183 ;;		None
  4184 ;; Auto vars:     Size  Location     Type
  4185 ;;		None
  4186 ;; Return value:  Size  Location     Type
  4187 ;;                  1    wreg      void 
  4188 ;; Registers used:
  4189 ;;		wreg, status,2
  4190 ;; Tracked objects:
  4191 ;;		On entry : 0/0
  4192 ;;		On exit  : 0/0
  4193 ;;		Unchanged: 0/0
  4194 ;; Data sizes:     COMMON   BANK0   BANK1   BANK2   BANK3   BANK4   BANK5   BANK6   BANK7   BANK8   BANK9  BANK10  BANK1
      +1  BANK12
  4195 ;;      Params:         0       0       0       0       0       0       0       0       0       0       0       0       
      +0       0
  4196 ;;      Locals:         0       0       0       0       0       0       0       0       0       0       0       0       
      +0       0
  4197 ;;      Temps:          0       0       0       0       0       0       0       0       0       0       0       0       
      +0       0
  4198 ;;      Totals:         0       0       0       0       0       0       0       0       0       0       0       0       
      +0       0
  4199 ;;Total ram usage:        0 bytes
  4200 ;; Hardware stack levels used:    1
  4201 ;; This function calls:
  4202 ;;		Nothing
  4203 ;; This function is called by:
  4204 ;;		_SYSTEM_Initialize
  4205 ;; This function uses a non-reentrant model
  4206 ;;
  4207                           
  4208                           
  4209                           ;psect for function _OSCILLATOR_Initialize
  4210  069D                     _OSCILLATOR_Initialize:	
  4211                           
  4212                           ;mcc_generated_files/mcc.c: 66:     OSCCON1 = 0x61;
  4213                           
  4214                           ;incstack = 0
  4215                           ; Regs used in _OSCILLATOR_Initialize: [wreg+status,2]
  4216  069D  3061               	movlw	97
  4217  069E  0032               	movlb	18	; select bank18
  4218  069F  0099               	movwf	25	;volatile
  4219                           
  4220                           ;mcc_generated_files/mcc.c: 68:     OSCCON3 = 0x00;
  4221  06A0  019B               	clrf	27	;volatile
  4222                           
  4223                           ;mcc_generated_files/mcc.c: 70:     OSCEN = 0x00;
  4224  06A1  019D               	clrf	29	;volatile
  4225                           
  4226                           ;mcc_generated_files/mcc.c: 72:     OSCFRQ = 0x00;
  4227  06A2  019F               	clrf	31	;volatile
  4228                           
  4229                           ;mcc_generated_files/mcc.c: 74:     OSCTUNE = 0x00;
  4230  06A3  019E               	clrf	30	;volatile
  4231  06A4  0008               	return
  4232  06A5                     __end_of_OSCILLATOR_Initialize:	
  4233                           
  4234                           	psect	text8
  4235  0695                     __ptext8:	
  4236 ;; *************** function _ADC_Initialize *****************
  4237 ;; Defined at:
  4238 ;;		line 65 in file "mcc_generated_files/adc.c"
  4239 ;; Parameters:    Size  Location     Type
  4240 ;;		None
  4241 ;; Auto vars:     Size  Location     Type
  4242 ;;		None
  4243 ;; Return value:  Size  Location     Type
  4244 ;;                  1    wreg      void 
  4245 ;; Registers used:
  4246 ;;		wreg, status,2
  4247 ;; Tracked objects:
  4248 ;;		On entry : 0/0
  4249 ;;		On exit  : 0/0
  4250 ;;		Unchanged: 0/0
  4251 ;; Data sizes:     COMMON   BANK0   BANK1   BANK2   BANK3   BANK4   BANK5   BANK6   BANK7   BANK8   BANK9  BANK10  BANK1
      +1  BANK12
  4252 ;;      Params:         0       0       0       0       0       0       0       0       0       0       0       0       
      +0       0
  4253 ;;      Locals:         0       0       0       0       0       0       0       0       0       0       0       0       
      +0       0
  4254 ;;      Temps:          0       0       0       0       0       0       0       0       0       0       0       0       
      +0       0
  4255 ;;      Totals:         0       0       0       0       0       0       0       0       0       0       0       0       
      +0       0
  4256 ;;Total ram usage:        0 bytes
  4257 ;; Hardware stack levels used:    1
  4258 ;; This function calls:
  4259 ;;		Nothing
  4260 ;; This function is called by:
  4261 ;;		_SYSTEM_Initialize
  4262 ;; This function uses a non-reentrant model
  4263 ;;
  4264                           
  4265                           
  4266                           ;psect for function _ADC_Initialize
  4267  0695                     _ADC_Initialize:	
  4268                           
  4269                           ;mcc_generated_files/adc.c: 70:     ADCON0 = 0x01;
  4270                           
  4271                           ;incstack = 0
  4272                           ; Regs used in _ADC_Initialize: [wreg+status,2]
  4273  0695  3001               	movlw	1
  4274  0696  0021               	movlb	1	; select bank1
  4275  0697  009D               	movwf	29	;volatile
  4276                           
  4277                           ;mcc_generated_files/adc.c: 73:     ADCON1 = 0x00;
  4278  0698  019E               	clrf	30	;volatile
  4279                           
  4280                           ;mcc_generated_files/adc.c: 76:     ADACT = 0x00;
  4281  0699  019F               	clrf	31	;volatile
  4282                           
  4283                           ;mcc_generated_files/adc.c: 79:     ADRESL = 0x00;
  4284  069A  019B               	clrf	27	;volatile
  4285                           
  4286                           ;mcc_generated_files/adc.c: 82:     ADRESH = 0x00;
  4287  069B  019C               	clrf	28	;volatile
  4288  069C  0008               	return
  4289  069D                     __end_of_ADC_Initialize:	
  4290                           
  4291                           	psect	text9
  4292  073A                     __ptext9:	
  4293 ;; *************** function _SPI *****************
  4294 ;; Defined at:
  4295 ;;		line 279 in file "main.c"
  4296 ;; Parameters:    Size  Location     Type
  4297 ;;		None
  4298 ;; Auto vars:     Size  Location     Type
  4299 ;;  myWriteBuffe    2   11[COMMON] unsigned char [2]
  4300 ;;  total           1   13[COMMON] unsigned char 
  4301 ;; Return value:  Size  Location     Type
  4302 ;;                  1    wreg      void 
  4303 ;; Registers used:
  4304 ;;		wreg, fsr1l, fsr1h, status,2, status,0, pclath, cstack
  4305 ;; Tracked objects:
  4306 ;;		On entry : 0/0
  4307 ;;		On exit  : 0/0
  4308 ;;		Unchanged: 0/0
  4309 ;; Data sizes:     COMMON   BANK0   BANK1   BANK2   BANK3   BANK4   BANK5   BANK6   BANK7   BANK8   BANK9  BANK10  BANK1
      +1  BANK12
  4310 ;;      Params:         0       0       0       0       0       0       0       0       0       0       0       0       
      +0       0
  4311 ;;      Locals:         3       0       0       0       0       0       0       0       0       0       0       0       
      +0       0
  4312 ;;      Temps:          3       0       0       0       0       0       0       0       0       0       0       0       
      +0       0
  4313 ;;      Totals:         6       0       0       0       0       0       0       0       0       0       0       0       
      +0       0
  4314 ;;Total ram usage:        6 bytes
  4315 ;; Hardware stack levels used:    1
  4316 ;; Hardware stack levels required when called:    2
  4317 ;; This function calls:
  4318 ;;		_PWM
  4319 ;;		_SPI1_Exchange8bitBuffer
  4320 ;;		_SPI1_Initialize
  4321 ;; This function is called by:
  4322 ;;		_main
  4323 ;; This function uses a non-reentrant model
  4324 ;;
  4325                           
  4326                           
  4327                           ;psect for function _SPI
  4328  073A                     _SPI:	
  4329                           
  4330                           ;main.c: 280:     PWM();
  4331                           
  4332                           ;incstack = 0
  4333                           ; Regs used in _SPI: [wreg+fsr1l+fsr1h+status,2+status,0+pclath+cstack]
  4334  073A  3187  270C  3187   	fcall	_PWM
  4335                           
  4336                           ;main.c: 281:     SPI1_Initialize();
  4337  073D  3186  267B  3187   	fcall	_SPI1_Initialize
  4338                           
  4339                           ;main.c: 282:     uint8_t myWriteBuffer[2] = {0xFE, 0x42};
  4340  0740  0020               	movlb	0	; select bank0
  4341  0741  082D               	movf	SPI@F6926+1,w
  4342  0742  00FC               	movwf	SPI@myWriteBuffer+1
  4343  0743  082C               	movf	SPI@F6926,w
  4344  0744  00FB               	movwf	SPI@myWriteBuffer
  4345                           
  4346                           ;main.c: 283:     uint8_t total;;main.c: 286:     SPI1_Initialize();
  4347  0745  3186  267B  3187   	fcall	_SPI1_Initialize
  4348                           
  4349                           ;main.c: 288:     total = 0;
  4350  0748  01FD               	clrf	SPI@total
  4351  0749                     l1728:	
  4352                           
  4353                           ;main.c: 290:     {;main.c: 291:         total = SPI1_Exchange8bitBuffer(&myWriteBuffer[
      +                          total], 2 - total, &myWriteBuffer[total]);
  4354  0749  087D               	movf	SPI@total,w
  4355  074A  3C02               	sublw	2
  4356  074B  00F8               	movwf	??_SPI
  4357  074C  0878               	movf	??_SPI,w
  4358  074D  00F1               	movwf	SPI1_Exchange8bitBuffer@bufLen
  4359  074E  087D               	movf	SPI@total,w
  4360  074F  3E7B               	addlw	(low (SPI@myWriteBuffer| 0))& (0+255)
  4361  0750  00F9               	movwf	??_SPI+1
  4362  0751  0879               	movf	??_SPI+1,w
  4363  0752  00F2               	movwf	SPI1_Exchange8bitBuffer@dataOut
  4364  0753  087D               	movf	SPI@total,w
  4365  0754  3E7B               	addlw	(low (SPI@myWriteBuffer| 0))& (0+255)
  4366  0755  3187  2796  3187   	fcall	_SPI1_Exchange8bitBuffer
  4367  0758  00FA               	movwf	??_SPI+2
  4368  0759  087A               	movf	??_SPI+2,w
  4369  075A  00FD               	movwf	SPI@total
  4370                           
  4371                           ;main.c: 292:         _delay((unsigned long)((1000)*(500000/4000.0)));
  4372  075B  30A3               	movlw	163
  4373  075C  00F8               	movwf	??_SPI
  4374  075D  3055               	movlw	85
  4375  075E                     u977:	
  4376  075E  0B89               	decfsz	9,f
  4377  075F  2F5E               	goto	u977
  4378  0760  0BF8               	decfsz	??_SPI,f
  4379  0761  2F5E               	goto	u977
  4380  0762  0000               	nop
  4381                           
  4382                           ;main.c: 294:     } while(total < 2);
  4383  0763  3002               	movlw	2
  4384  0764  027D               	subwf	SPI@total,w
  4385  0765  1803               	btfsc	3,0
  4386  0766  0008               	return
  4387  0767  2F49               	goto	l1728
  4388  0768                     __end_of_SPI:	
  4389                           
  4390                           	psect	text10
  4391  067B                     __ptext10:	
  4392 ;; *************** function _SPI1_Initialize *****************
  4393 ;; Defined at:
  4394 ;;		line 65 in file "mcc_generated_files/spi1.c"
  4395 ;; Parameters:    Size  Location     Type
  4396 ;;		None
  4397 ;; Auto vars:     Size  Location     Type
  4398 ;;		None
  4399 ;; Return value:  Size  Location     Type
  4400 ;;                  1    wreg      void 
  4401 ;; Registers used:
  4402 ;;		wreg, status,2
  4403 ;; Tracked objects:
  4404 ;;		On entry : 0/0
  4405 ;;		On exit  : 0/0
  4406 ;;		Unchanged: 0/0
  4407 ;; Data sizes:     COMMON   BANK0   BANK1   BANK2   BANK3   BANK4   BANK5   BANK6   BANK7   BANK8   BANK9  BANK10  BANK1
      +1  BANK12
  4408 ;;      Params:         0       0       0       0       0       0       0       0       0       0       0       0       
      +0       0
  4409 ;;      Locals:         0       0       0       0       0       0       0       0       0       0       0       0       
      +0       0
  4410 ;;      Temps:          0       0       0       0       0       0       0       0       0       0       0       0       
      +0       0
  4411 ;;      Totals:         0       0       0       0       0       0       0       0       0       0       0       0       
      +0       0
  4412 ;;Total ram usage:        0 bytes
  4413 ;; Hardware stack levels used:    1
  4414 ;; This function calls:
  4415 ;;		Nothing
  4416 ;; This function is called by:
  4417 ;;		_SYSTEM_Initialize
  4418 ;;		_SPI
  4419 ;; This function uses a non-reentrant model
  4420 ;;
  4421                           
  4422                           
  4423                           ;psect for function _SPI1_Initialize
  4424  067B                     _SPI1_Initialize:	
  4425                           
  4426                           ;mcc_generated_files/spi1.c: 70:     SSP1STAT = 0x00;
  4427                           
  4428                           ;incstack = 0
  4429                           ; Regs used in _SPI1_Initialize: [wreg+status,2]
  4430  067B  0024               	movlb	4	; select bank4
  4431  067C  0194               	clrf	20	;volatile
  4432                           
  4433                           ;mcc_generated_files/spi1.c: 73:     SSP1CON1 = 0x20;
  4434  067D  3020               	movlw	32
  4435  067E  0095               	movwf	21	;volatile
  4436                           
  4437                           ;mcc_generated_files/spi1.c: 76:     SSP1ADD = 0x00;
  4438  067F  0192               	clrf	18	;volatile
  4439  0680  0008               	return
  4440  0681                     __end_of_SPI1_Initialize:	
  4441                           
  4442                           	psect	text11
  4443  0796                     __ptext11:	
  4444 ;; *************** function _SPI1_Exchange8bitBuffer *****************
  4445 ;; Defined at:
  4446 ;;		line 94 in file "mcc_generated_files/spi1.c"
  4447 ;; Parameters:    Size  Location     Type
  4448 ;;  dataIn          1    wreg     PTR unsigned char 
  4449 ;;		 -> SPI@myWriteBuffer(2), 
  4450 ;;  bufLen          1    1[COMMON] unsigned char 
  4451 ;;  dataOut         1    2[COMMON] PTR unsigned char 
  4452 ;;		 -> SPI@myWriteBuffer(2), 
  4453 ;; Auto vars:     Size  Location     Type
  4454 ;;  dataIn          1    6[COMMON] PTR unsigned char 
  4455 ;;		 -> SPI@myWriteBuffer(2), 
  4456 ;;  bytesWritten    1    7[COMMON] unsigned char 
  4457 ;; Return value:  Size  Location     Type
  4458 ;;                  1    wreg      unsigned char 
  4459 ;; Registers used:
  4460 ;;		wreg, fsr1l, fsr1h, status,2, status,0, pclath, cstack
  4461 ;; Tracked objects:
  4462 ;;		On entry : 0/0
  4463 ;;		On exit  : 0/0
  4464 ;;		Unchanged: 0/0
  4465 ;; Data sizes:     COMMON   BANK0   BANK1   BANK2   BANK3   BANK4   BANK5   BANK6   BANK7   BANK8   BANK9  BANK10  BANK1
      +1  BANK12
  4466 ;;      Params:         2       0       0       0       0       0       0       0       0       0       0       0       
      +0       0
  4467 ;;      Locals:         2       0       0       0       0       0       0       0       0       0       0       0       
      +0       0
  4468 ;;      Temps:          3       0       0       0       0       0       0       0       0       0       0       0       
      +0       0
  4469 ;;      Totals:         7       0       0       0       0       0       0       0       0       0       0       0       
      +0       0
  4470 ;;Total ram usage:        7 bytes
  4471 ;; Hardware stack levels used:    1
  4472 ;; Hardware stack levels required when called:    1
  4473 ;; This function calls:
  4474 ;;		_SPI1_Exchange8bit
  4475 ;; This function is called by:
  4476 ;;		_SPI
  4477 ;; This function uses a non-reentrant model
  4478 ;;
  4479                           
  4480                           
  4481                           ;psect for function _SPI1_Exchange8bitBuffer
  4482  0796                     _SPI1_Exchange8bitBuffer:	
  4483                           
  4484                           ;incstack = 0
  4485                           ; Regs used in _SPI1_Exchange8bitBuffer: [wreg+fsr1l+fsr1h+status,2+status,0+pclath+csta
      +                          ck]
  4486                           ;SPI1_Exchange8bitBuffer@dataIn stored from wreg
  4487  0796  00F6               	movwf	SPI1_Exchange8bitBuffer@dataIn
  4488                           
  4489                           ;mcc_generated_files/spi1.c: 94: uint8_t SPI1_Exchange8bitBuffer(uint8_t *dataIn, uint8_
      +                          t bufLen, uint8_t *dataOut);mcc_generated_files/spi1.c: 95: {;mcc_generated_files/spi1.c
      +                          : 96:     uint8_t bytesWritten = 0;
  4490  0797  01F7               	clrf	SPI1_Exchange8bitBuffer@bytesWritten
  4491                           
  4492                           ;mcc_generated_files/spi1.c: 98:     if(bufLen != 0)
  4493  0798  0871               	movf	SPI1_Exchange8bitBuffer@bufLen,w
  4494  0799  1903               	btfsc	3,2
  4495  079A  2FE4               	goto	l1670
  4496                           
  4497                           ;mcc_generated_files/spi1.c: 99:     {;mcc_generated_files/spi1.c: 100:         if(dataI
      +                          n != ((void*)0))
  4498  079B  0876               	movf	SPI1_Exchange8bitBuffer@dataIn,w
  4499  079C  1D03               	btfss	3,2
  4500  079D  2FC5               	goto	l1658
  4501  079E  2FCA               	goto	l1660
  4502  079F                     l1650:	
  4503                           
  4504                           ;mcc_generated_files/spi1.c: 103:             {;mcc_generated_files/spi1.c: 104:        
      +                                   if(dataOut == ((void*)0))
  4505  079F  0872               	movf	SPI1_Exchange8bitBuffer@dataOut,w
  4506  07A0  1D03               	btfss	3,2
  4507  07A1  2FAD               	goto	l1654
  4508                           
  4509                           ;mcc_generated_files/spi1.c: 105:                 {;mcc_generated_files/spi1.c: 106:    
      +                                           SPI1_Exchange8bit(dataIn[bytesWritten]);
  4510  07A2  0877               	movf	SPI1_Exchange8bitBuffer@bytesWritten,w
  4511  07A3  0776               	addwf	SPI1_Exchange8bitBuffer@dataIn,w
  4512  07A4  00F3               	movwf	??_SPI1_Exchange8bitBuffer
  4513  07A5  0873               	movf	??_SPI1_Exchange8bitBuffer,w
  4514  07A6  0086               	movwf	6
  4515  07A7  0187               	clrf	7
  4516  07A8  0801               	movf	1,w
  4517  07A9  3186  26BF  3187   	fcall	_SPI1_Exchange8bit
  4518                           
  4519                           ;mcc_generated_files/spi1.c: 107:                 }
  4520  07AC  2FC0               	goto	l1656
  4521  07AD                     l1654:	
  4522                           
  4523                           ;mcc_generated_files/spi1.c: 109:                 {;mcc_generated_files/spi1.c: 110:    
      +                                           dataOut[bytesWritten] = SPI1_Exchange8bit(dataIn[bytesWritten]);
  4524  07AD  0877               	movf	SPI1_Exchange8bitBuffer@bytesWritten,w
  4525  07AE  0776               	addwf	SPI1_Exchange8bitBuffer@dataIn,w
  4526  07AF  00F3               	movwf	??_SPI1_Exchange8bitBuffer
  4527  07B0  0873               	movf	??_SPI1_Exchange8bitBuffer,w
  4528  07B1  0086               	movwf	6
  4529  07B2  0187               	clrf	7
  4530  07B3  0801               	movf	1,w
  4531  07B4  3186  26BF  3187   	fcall	_SPI1_Exchange8bit
  4532  07B7  00F4               	movwf	??_SPI1_Exchange8bitBuffer+1
  4533  07B8  0877               	movf	SPI1_Exchange8bitBuffer@bytesWritten,w
  4534  07B9  0772               	addwf	SPI1_Exchange8bitBuffer@dataOut,w
  4535  07BA  00F5               	movwf	??_SPI1_Exchange8bitBuffer+2
  4536  07BB  0875               	movf	??_SPI1_Exchange8bitBuffer+2,w
  4537  07BC  0086               	movwf	6
  4538  07BD  0187               	clrf	7
  4539  07BE  0874               	movf	??_SPI1_Exchange8bitBuffer+1,w
  4540  07BF  0081               	movwf	1
  4541  07C0                     l1656:	
  4542                           
  4543                           ;mcc_generated_files/spi1.c: 113:                 bytesWritten++;
  4544  07C0  3001               	movlw	1
  4545  07C1  00F3               	movwf	??_SPI1_Exchange8bitBuffer
  4546  07C2  0873               	movf	??_SPI1_Exchange8bitBuffer,w
  4547  07C3  07F7               	addwf	SPI1_Exchange8bitBuffer@bytesWritten,f
  4548  07C4  0064               	clrwdt	;# 
  4549  07C5                     l1658:	
  4550                           
  4551                           ;mcc_generated_files/spi1.c: 102:             while(bytesWritten < bufLen)
  4552  07C5  0871               	movf	SPI1_Exchange8bitBuffer@bufLen,w
  4553  07C6  0277               	subwf	SPI1_Exchange8bitBuffer@bytesWritten,w
  4554  07C7  1803               	btfsc	3,0
  4555  07C8  2FE4               	goto	l1670
  4556  07C9  2F9F               	goto	l1650
  4557  07CA                     l1660:	
  4558                           
  4559                           ;mcc_generated_files/spi1.c: 118:         {;mcc_generated_files/spi1.c: 119:            
      +                           if(dataOut != ((void*)0))
  4560  07CA  0872               	movf	SPI1_Exchange8bitBuffer@dataOut,w
  4561  07CB  1D03               	btfss	3,2
  4562  07CC  2FE0               	goto	l1668
  4563  07CD  2FE4               	goto	l1670
  4564  07CE                     l1664:	
  4565                           
  4566                           ;mcc_generated_files/spi1.c: 122:                 {;mcc_generated_files/spi1.c: 123:    
      +                                           dataOut[bytesWritten] = SPI1_Exchange8bit(0x0);
  4567  07CE  3000               	movlw	0
  4568  07CF  3186  26BF  3187   	fcall	_SPI1_Exchange8bit
  4569  07D2  00F3               	movwf	??_SPI1_Exchange8bitBuffer
  4570  07D3  0877               	movf	SPI1_Exchange8bitBuffer@bytesWritten,w
  4571  07D4  0772               	addwf	SPI1_Exchange8bitBuffer@dataOut,w
  4572  07D5  00F4               	movwf	??_SPI1_Exchange8bitBuffer+1
  4573  07D6  0874               	movf	??_SPI1_Exchange8bitBuffer+1,w
  4574  07D7  0086               	movwf	6
  4575  07D8  0187               	clrf	7
  4576  07D9  0873               	movf	??_SPI1_Exchange8bitBuffer,w
  4577  07DA  0081               	movwf	1
  4578                           
  4579                           ;mcc_generated_files/spi1.c: 125:                     bytesWritten++;
  4580  07DB  3001               	movlw	1
  4581  07DC  00F3               	movwf	??_SPI1_Exchange8bitBuffer
  4582  07DD  0873               	movf	??_SPI1_Exchange8bitBuffer,w
  4583  07DE  07F7               	addwf	SPI1_Exchange8bitBuffer@bytesWritten,f
  4584  07DF  0064               	clrwdt	;# 
  4585  07E0                     l1668:	
  4586                           
  4587                           ;mcc_generated_files/spi1.c: 121:                 while(bytesWritten < bufLen )
  4588  07E0  0871               	movf	SPI1_Exchange8bitBuffer@bufLen,w
  4589  07E1  0277               	subwf	SPI1_Exchange8bitBuffer@bytesWritten,w
  4590  07E2  1C03               	skipc
  4591  07E3  2FCE               	goto	l1664
  4592  07E4                     l1670:	
  4593                           
  4594                           ;mcc_generated_files/spi1.c: 132:     return bytesWritten;
  4595  07E4  0877               	movf	SPI1_Exchange8bitBuffer@bytesWritten,w
  4596  07E5  0008               	return
  4597  07E6                     __end_of_SPI1_Exchange8bitBuffer:	
  4598                           
  4599                           	psect	text12
  4600  06BF                     __ptext12:	
  4601 ;; *************** function _SPI1_Exchange8bit *****************
  4602 ;; Defined at:
  4603 ;;		line 79 in file "mcc_generated_files/spi1.c"
  4604 ;; Parameters:    Size  Location     Type
  4605 ;;  data            1    wreg     unsigned char 
  4606 ;; Auto vars:     Size  Location     Type
  4607 ;;  data            1    0[COMMON] unsigned char 
  4608 ;; Return value:  Size  Location     Type
  4609 ;;                  1    wreg      unsigned char 
  4610 ;; Registers used:
  4611 ;;		wreg
  4612 ;; Tracked objects:
  4613 ;;		On entry : 0/0
  4614 ;;		On exit  : 0/0
  4615 ;;		Unchanged: 0/0
  4616 ;; Data sizes:     COMMON   BANK0   BANK1   BANK2   BANK3   BANK4   BANK5   BANK6   BANK7   BANK8   BANK9  BANK10  BANK1
      +1  BANK12
  4617 ;;      Params:         0       0       0       0       0       0       0       0       0       0       0       0       
      +0       0
  4618 ;;      Locals:         1       0       0       0       0       0       0       0       0       0       0       0       
      +0       0
  4619 ;;      Temps:          0       0       0       0       0       0       0       0       0       0       0       0       
      +0       0
  4620 ;;      Totals:         1       0       0       0       0       0       0       0       0       0       0       0       
      +0       0
  4621 ;;Total ram usage:        1 bytes
  4622 ;; Hardware stack levels used:    1
  4623 ;; This function calls:
  4624 ;;		Nothing
  4625 ;; This function is called by:
  4626 ;;		_SPI1_Exchange8bitBuffer
  4627 ;; This function uses a non-reentrant model
  4628 ;;
  4629                           
  4630                           
  4631                           ;psect for function _SPI1_Exchange8bit
  4632  06BF                     _SPI1_Exchange8bit:	
  4633                           
  4634                           ;incstack = 0
  4635                           ; Regs used in _SPI1_Exchange8bit: [wreg]
  4636                           ;SPI1_Exchange8bit@data stored from wreg
  4637  06BF  00F0               	movwf	SPI1_Exchange8bit@data
  4638                           
  4639                           ;mcc_generated_files/spi1.c: 79: uint8_t SPI1_Exchange8bit(uint8_t data);mcc_generated_f
      +                          iles/spi1.c: 80: {;mcc_generated_files/spi1.c: 82:     SSP1CON1bits.WCOL = 0;
  4640  06C0  0024               	movlb	4	; select bank4
  4641  06C1  1395               	bcf	21,7	;volatile
  4642                           
  4643                           ;mcc_generated_files/spi1.c: 84:     SSP1BUF = data;
  4644  06C2  0870               	movf	SPI1_Exchange8bit@data,w
  4645  06C3  0091               	movwf	17	;volatile
  4646  06C4                     l18:	
  4647                           ;mcc_generated_files/spi1.c: 89:     }
  4648                           
  4649                           ;mcc_generated_files/spi1.c: 86:     while(SSP1STATbits.BF == 0x0)
  4650                           
  4651                           
  4652                           ;mcc_generated_files/spi1.c: 86:     while(SSP1STATbits.BF == 0x0)
  4653  06C4  0024               	movlb	4	; select bank4
  4654  06C5  1814               	btfsc	20,0	;volatile
  4655  06C6  2EC9               	goto	l1592
  4656  06C7  0064               	clrwdt	;# 
  4657  06C8  2EC4               	goto	l18
  4658  06C9                     l1592:	
  4659                           
  4660                           ;mcc_generated_files/spi1.c: 91:     return (SSP1BUF);
  4661  06C9  0811               	movf	17,w	;volatile
  4662  06CA  0008               	return
  4663  06CB                     __end_of_SPI1_Exchange8bit:	
  4664                           
  4665                           	psect	text13
  4666  070C                     __ptext13:	
  4667 ;; *************** function _PWM *****************
  4668 ;; Defined at:
  4669 ;;		line 301 in file "main.c"
  4670 ;; Parameters:    Size  Location     Type
  4671 ;;		None
  4672 ;; Auto vars:     Size  Location     Type
  4673 ;;		None
  4674 ;; Return value:  Size  Location     Type
  4675 ;;                  1    wreg      void 
  4676 ;; Registers used:
  4677 ;;		wreg, status,2, status,0, pclath, cstack
  4678 ;; Tracked objects:
  4679 ;;		On entry : 0/0
  4680 ;;		On exit  : 0/0
  4681 ;;		Unchanged: 0/0
  4682 ;; Data sizes:     COMMON   BANK0   BANK1   BANK2   BANK3   BANK4   BANK5   BANK6   BANK7   BANK8   BANK9  BANK10  BANK1
      +1  BANK12
  4683 ;;      Params:         0       0       0       0       0       0       0       0       0       0       0       0       
      +0       0
  4684 ;;      Locals:         0       0       0       0       0       0       0       0       0       0       0       0       
      +0       0
  4685 ;;      Temps:          2       0       0       0       0       0       0       0       0       0       0       0       
      +0       0
  4686 ;;      Totals:         2       0       0       0       0       0       0       0       0       0       0       0       
      +0       0
  4687 ;;Total ram usage:        2 bytes
  4688 ;; Hardware stack levels used:    1
  4689 ;; Hardware stack levels required when called:    1
  4690 ;; This function calls:
  4691 ;;		_ADC_GetConversion
  4692 ;;		_PWM1_LoadDutyValue
  4693 ;;		_PWM_Output_D7_Disable
  4694 ;;		_PWM_Output_D7_Enable
  4695 ;;		_TMR2_StartTimer
  4696 ;; This function is called by:
  4697 ;;		_SPI
  4698 ;; This function uses a non-reentrant model
  4699 ;;
  4700                           
  4701                           
  4702                           ;psect for function _PWM
  4703  070C                     _PWM:	
  4704                           
  4705                           ;main.c: 302:     if(state == 0) {
  4706                           
  4707                           ;incstack = 0
  4708                           ; Regs used in _PWM: [wreg+status,2+status,0+pclath+cstack]
  4709  070C  0020               	movlb	0	; select bank0
  4710  070D  0823               	movf	_state,w
  4711  070E  1D03               	btfss	3,2
  4712  070F  2F1E               	goto	l1688
  4713  0710  0022               	movlb	2	; select bank2
  4714  0711  018C               	clrf	12	;volatile
  4715  0712  128E               	bcf	14,5	;volatile
  4716                           
  4717                           ;main.c: 304:         PWM_Output_D7_Enable();
  4718  0713  3186  2673  3187   	fcall	_PWM_Output_D7_Enable
  4719                           
  4720                           ;main.c: 305:         TMR2_StartTimer();
  4721  0716  3186  2670  3187   	fcall	_TMR2_StartTimer
  4722                           
  4723                           ;main.c: 306:         pause = 1;
  4724  0719  0020               	movlb	0	; select bank0
  4725  071A  01A2               	clrf	_pause
  4726  071B  0AA2               	incf	_pause,f
  4727                           
  4728                           ;main.c: 307:         state = 1;
  4729  071C  01A3               	clrf	_state
  4730  071D  0AA3               	incf	_state,f
  4731  071E                     l1688:	
  4732                           
  4733                           ;main.c: 310:     if(state == 1) {
  4734  071E  0323               	decf	_state,w
  4735  071F  1D03               	btfss	3,2
  4736  0720  0008               	return
  4737                           
  4738                           ;main.c: 311:         adcResult2 = ADC_GetConversion(POT_CHANNEL) >> 6;
  4739  0721  3000               	movlw	0
  4740  0722  3186  26DC  3187   	fcall	_ADC_GetConversion
  4741  0725  0870               	movf	?_ADC_GetConversion,w
  4742  0726  00F4               	movwf	??_PWM
  4743  0727  0871               	movf	?_ADC_GetConversion+1,w
  4744  0728  00F5               	movwf	??_PWM+1
  4745  0729  3006               	movlw	6
  4746  072A                     u615:	
  4747  072A  36F5               	lsrf	??_PWM+1,f
  4748  072B  0CF4               	rrf	??_PWM,f
  4749  072C  0B89               	decfsz	9,f
  4750  072D  2F2A               	goto	u615
  4751  072E  0874               	movf	??_PWM,w
  4752  072F  0020               	movlb	0	; select bank0
  4753  0730  00A0               	movwf	_adcResult2
  4754  0731  0875               	movf	??_PWM+1,w
  4755  0732  00A1               	movwf	_adcResult2+1
  4756                           
  4757                           ;main.c: 312:         PWM1_LoadDutyValue(adcResult2);
  4758  0733  0821               	movf	_adcResult2+1,w
  4759  0734  00F1               	movwf	PWM1_LoadDutyValue@dutyValue+1
  4760  0735  0820               	movf	_adcResult2,w
  4761  0736  00F0               	movwf	PWM1_LoadDutyValue@dutyValue
  4762  0737  3186  26CB         	fcall	_PWM1_LoadDutyValue
  4763  0739  0008               	return
  4764  073A                     __end_of_PWM:	
  4765                           
  4766                           	psect	text14
  4767  0670                     __ptext14:	
  4768 ;; *************** function _TMR2_StartTimer *****************
  4769 ;; Defined at:
  4770 ;;		line 79 in file "mcc_generated_files/tmr2.c"
  4771 ;; Parameters:    Size  Location     Type
  4772 ;;		None
  4773 ;; Auto vars:     Size  Location     Type
  4774 ;;		None
  4775 ;; Return value:  Size  Location     Type
  4776 ;;                  1    wreg      void 
  4777 ;; Registers used:
  4778 ;;		None
  4779 ;; Tracked objects:
  4780 ;;		On entry : 0/0
  4781 ;;		On exit  : 0/0
  4782 ;;		Unchanged: 0/0
  4783 ;; Data sizes:     COMMON   BANK0   BANK1   BANK2   BANK3   BANK4   BANK5   BANK6   BANK7   BANK8   BANK9  BANK10  BANK1
      +1  BANK12
  4784 ;;      Params:         0       0       0       0       0       0       0       0       0       0       0       0       
      +0       0
  4785 ;;      Locals:         0       0       0       0       0       0       0       0       0       0       0       0       
      +0       0
  4786 ;;      Temps:          0       0       0       0       0       0       0       0       0       0       0       0       
      +0       0
  4787 ;;      Totals:         0       0       0       0       0       0       0       0       0       0       0       0       
      +0       0
  4788 ;;Total ram usage:        0 bytes
  4789 ;; Hardware stack levels used:    1
  4790 ;; This function calls:
  4791 ;;		Nothing
  4792 ;; This function is called by:
  4793 ;;		_PWM
  4794 ;; This function uses a non-reentrant model
  4795 ;;
  4796                           
  4797                           
  4798                           ;psect for function _TMR2_StartTimer
  4799  0670                     _TMR2_StartTimer:	
  4800                           
  4801                           ;mcc_generated_files/tmr2.c: 82:     T2CONbits.TMR2ON = 1;
  4802                           
  4803                           ;incstack = 0
  4804                           ; Regs used in _TMR2_StartTimer: []
  4805  0670  0020               	movlb	0	; select bank0
  4806  0671  151F               	bsf	31,2	;volatile
  4807  0672  0008               	return
  4808  0673                     __end_of_TMR2_StartTimer:	
  4809                           
  4810                           	psect	text15
  4811  0673                     __ptext15:	
  4812 ;; *************** function _PWM_Output_D7_Enable *****************
  4813 ;; Defined at:
  4814 ;;		line 327 in file "main.c"
  4815 ;; Parameters:    Size  Location     Type
  4816 ;;		None
  4817 ;; Auto vars:     Size  Location     Type
  4818 ;;		None
  4819 ;; Return value:  Size  Location     Type
  4820 ;;                  1    wreg      void 
  4821 ;; Registers used:
  4822 ;;		wreg
  4823 ;; Tracked objects:
  4824 ;;		On entry : 0/0
  4825 ;;		On exit  : 0/0
  4826 ;;		Unchanged: 0/0
  4827 ;; Data sizes:     COMMON   BANK0   BANK1   BANK2   BANK3   BANK4   BANK5   BANK6   BANK7   BANK8   BANK9  BANK10  BANK1
      +1  BANK12
  4828 ;;      Params:         0       0       0       0       0       0       0       0       0       0       0       0       
      +0       0
  4829 ;;      Locals:         0       0       0       0       0       0       0       0       0       0       0       0       
      +0       0
  4830 ;;      Temps:          0       0       0       0       0       0       0       0       0       0       0       0       
      +0       0
  4831 ;;      Totals:         0       0       0       0       0       0       0       0       0       0       0       0       
      +0       0
  4832 ;;Total ram usage:        0 bytes
  4833 ;; Hardware stack levels used:    1
  4834 ;; This function calls:
  4835 ;;		Nothing
  4836 ;; This function is called by:
  4837 ;;		_PWM
  4838 ;; This function uses a non-reentrant model
  4839 ;;
  4840                           
  4841                           
  4842                           ;psect for function _PWM_Output_D7_Enable
  4843  0673                     _PWM_Output_D7_Enable:	
  4844                           
  4845                           ;main.c: 328:     RC5PPS = 0x0C;
  4846                           
  4847                           ;incstack = 0
  4848                           ; Regs used in _PWM_Output_D7_Enable: [wreg]
  4849  0673  300C               	movlw	12
  4850  0674  003D               	movlb	29	; select bank29
  4851  0675  00A5               	movwf	37	;volatile
  4852  0676  0008               	return
  4853  0677                     __end_of_PWM_Output_D7_Enable:	
  4854                           
  4855                           	psect	text16
  4856  066D                     __ptext16:	
  4857 ;; *************** function _PWM_Output_D7_Disable *****************
  4858 ;; Defined at:
  4859 ;;		line 331 in file "main.c"
  4860 ;; Parameters:    Size  Location     Type
  4861 ;;		None
  4862 ;; Auto vars:     Size  Location     Type
  4863 ;;		None
  4864 ;; Return value:  Size  Location     Type
  4865 ;;                  1    wreg      void 
  4866 ;; Registers used:
  4867 ;;		status,2
  4868 ;; Tracked objects:
  4869 ;;		On entry : 0/0
  4870 ;;		On exit  : 0/0
  4871 ;;		Unchanged: 0/0
  4872 ;; Data sizes:     COMMON   BANK0   BANK1   BANK2   BANK3   BANK4   BANK5   BANK6   BANK7   BANK8   BANK9  BANK10  BANK1
      +1  BANK12
  4873 ;;      Params:         0       0       0       0       0       0       0       0       0       0       0       0       
      +0       0
  4874 ;;      Locals:         0       0       0       0       0       0       0       0       0       0       0       0       
      +0       0
  4875 ;;      Temps:          0       0       0       0       0       0       0       0       0       0       0       0       
      +0       0
  4876 ;;      Totals:         0       0       0       0       0       0       0       0       0       0       0       0       
      +0       0
  4877 ;;Total ram usage:        0 bytes
  4878 ;; Hardware stack levels used:    1
  4879 ;; This function calls:
  4880 ;;		Nothing
  4881 ;; This function is called by:
  4882 ;;		_PWM
  4883 ;; This function uses a non-reentrant model
  4884 ;;
  4885                           
  4886                           
  4887                           ;psect for function _PWM_Output_D7_Disable
  4888  066D                     _PWM_Output_D7_Disable:	
  4889                           
  4890                           ;main.c: 332:     RC5PPS = 0x00;
  4891                           
  4892                           ;incstack = 0
  4893                           ; Regs used in _PWM_Output_D7_Disable: [status,2]
  4894  066D  003D               	movlb	29	; select bank29
  4895  066E  01A5               	clrf	37	;volatile
  4896  066F  0008               	return
  4897  0670                     __end_of_PWM_Output_D7_Disable:	
  4898                           
  4899                           	psect	text17
  4900  06CB                     __ptext17:	
  4901 ;; *************** function _PWM1_LoadDutyValue *****************
  4902 ;; Defined at:
  4903 ;;		line 82 in file "mcc_generated_files/pwm1.c"
  4904 ;; Parameters:    Size  Location     Type
  4905 ;;  dutyValue       2    0[COMMON] unsigned short 
  4906 ;; Auto vars:     Size  Location     Type
  4907 ;;		None
  4908 ;; Return value:  Size  Location     Type
  4909 ;;                  1    wreg      void 
  4910 ;; Registers used:
  4911 ;;		wreg, status,2
  4912 ;; Tracked objects:
  4913 ;;		On entry : 0/0
  4914 ;;		On exit  : 0/0
  4915 ;;		Unchanged: 0/0
  4916 ;; Data sizes:     COMMON   BANK0   BANK1   BANK2   BANK3   BANK4   BANK5   BANK6   BANK7   BANK8   BANK9  BANK10  BANK1
      +1  BANK12
  4917 ;;      Params:         2       0       0       0       0       0       0       0       0       0       0       0       
      +0       0
  4918 ;;      Locals:         0       0       0       0       0       0       0       0       0       0       0       0       
      +0       0
  4919 ;;      Temps:          0       0       0       0       0       0       0       0       0       0       0       0       
      +0       0
  4920 ;;      Totals:         2       0       0       0       0       0       0       0       0       0       0       0       
      +0       0
  4921 ;;Total ram usage:        2 bytes
  4922 ;; Hardware stack levels used:    1
  4923 ;; This function calls:
  4924 ;;		Nothing
  4925 ;; This function is called by:
  4926 ;;		_PWM
  4927 ;; This function uses a non-reentrant model
  4928 ;;
  4929                           
  4930                           
  4931                           ;psect for function _PWM1_LoadDutyValue
  4932  06CB                     _PWM1_LoadDutyValue:	
  4933                           
  4934                           ;mcc_generated_files/pwm1.c: 82: void PWM1_LoadDutyValue(uint16_t dutyValue);mcc_generat
      +                          ed_files/pwm1.c: 83: {;mcc_generated_files/pwm1.c: 84:     dutyValue &= 0x03FF;
  4935                           
  4936                           ;incstack = 0
  4937                           ; Regs used in _PWM1_LoadDutyValue: [wreg+status,2]
  4938  06CB  30FF               	movlw	255
  4939  06CC  05F0               	andwf	PWM1_LoadDutyValue@dutyValue,f
  4940  06CD  3003               	movlw	3
  4941  06CE  05F1               	andwf	PWM1_LoadDutyValue@dutyValue+1,f
  4942                           
  4943                           ;mcc_generated_files/pwm1.c: 87:     if(CCP1CONbits.CCP1FMT)
  4944  06CF  0025               	movlb	5	; select bank5
  4945  06D0  1E13               	btfss	19,4	;volatile
  4946  06D1  2ED7               	goto	l1602
  4947                           
  4948                           ;mcc_generated_files/pwm1.c: 88:     {;mcc_generated_files/pwm1.c: 89:         dutyValue
      +                           <<= 6;
  4949  06D2  3006               	movlw	6
  4950  06D3                     u485:	
  4951  06D3  35F0               	lslf	PWM1_LoadDutyValue@dutyValue,f
  4952  06D4  0DF1               	rlf	PWM1_LoadDutyValue@dutyValue+1,f
  4953  06D5  0B89               	decfsz	9,f
  4954  06D6  2ED3               	goto	u485
  4955  06D7                     l1602:	
  4956                           
  4957                           ;mcc_generated_files/pwm1.c: 90:         CCPR1H = dutyValue >> 8;
  4958  06D7  0871               	movf	PWM1_LoadDutyValue@dutyValue+1,w
  4959  06D8  0092               	movwf	18	;volatile
  4960                           
  4961                           ;mcc_generated_files/pwm1.c: 91:         CCPR1L = dutyValue;
  4962  06D9  0870               	movf	PWM1_LoadDutyValue@dutyValue,w
  4963  06DA  0091               	movwf	17	;volatile
  4964                           
  4965                           ;mcc_generated_files/pwm1.c: 92:     }
  4966  06DB  0008               	return
  4967  06DC                     __end_of_PWM1_LoadDutyValue:	
  4968                           
  4969                           	psect	text18
  4970  06DC                     __ptext18:	
  4971 ;; *************** function _ADC_GetConversion *****************
  4972 ;; Defined at:
  4973 ;;		line 113 in file "mcc_generated_files/adc.c"
  4974 ;; Parameters:    Size  Location     Type
  4975 ;;  channel         1    wreg     enum E6648
  4976 ;; Auto vars:     Size  Location     Type
  4977 ;;  channel         1    3[COMMON] enum E6648
  4978 ;; Return value:  Size  Location     Type
  4979 ;;                  2    0[COMMON] unsigned short 
  4980 ;; Registers used:
  4981 ;;		wreg, status,2, status,0
  4982 ;; Tracked objects:
  4983 ;;		On entry : 0/0
  4984 ;;		On exit  : 0/0
  4985 ;;		Unchanged: 0/0
  4986 ;; Data sizes:     COMMON   BANK0   BANK1   BANK2   BANK3   BANK4   BANK5   BANK6   BANK7   BANK8   BANK9  BANK10  BANK1
      +1  BANK12
  4987 ;;      Params:         2       0       0       0       0       0       0       0       0       0       0       0       
      +0       0
  4988 ;;      Locals:         1       0       0       0       0       0       0       0       0       0       0       0       
      +0       0
  4989 ;;      Temps:          1       0       0       0       0       0       0       0       0       0       0       0       
      +0       0
  4990 ;;      Totals:         4       0       0       0       0       0       0       0       0       0       0       0       
      +0       0
  4991 ;;Total ram usage:        4 bytes
  4992 ;; Hardware stack levels used:    1
  4993 ;; This function calls:
  4994 ;;		Nothing
  4995 ;; This function is called by:
  4996 ;;		_PWM
  4997 ;; This function uses a non-reentrant model
  4998 ;;
  4999                           
  5000                           
  5001                           ;psect for function _ADC_GetConversion
  5002  06DC                     _ADC_GetConversion:	
  5003                           
  5004                           ;incstack = 0
  5005                           ; Regs used in _ADC_GetConversion: [wreg+status,2+status,0]
  5006                           ;ADC_GetConversion@channel stored from wreg
  5007  06DC  00F3               	movwf	ADC_GetConversion@channel
  5008                           
  5009                           ;mcc_generated_files/adc.c: 113: adc_result_t ADC_GetConversion(adc_channel_t channel);m
      +                          cc_generated_files/adc.c: 114: {;mcc_generated_files/adc.c: 116:     ADCON0bits.CHS = ch
      +                          annel;
  5010  06DD  0873               	movf	ADC_GetConversion@channel,w
  5011  06DE  00F2               	movwf	??_ADC_GetConversion
  5012  06DF  0DF2               	rlf	??_ADC_GetConversion,f
  5013  06E0  0DF2               	rlf	??_ADC_GetConversion,f
  5014  06E1  0021               	movlb	1	; select bank1
  5015  06E2  081D               	movf	29,w	;volatile
  5016  06E3  0672               	xorwf	??_ADC_GetConversion,w
  5017  06E4  3903               	andlw	-253
  5018  06E5  0672               	xorwf	??_ADC_GetConversion,w
  5019  06E6  009D               	movwf	29	;volatile
  5020                           
  5021                           ;mcc_generated_files/adc.c: 119:     ADCON0bits.ADON = 1;
  5022  06E7  141D               	bsf	29,0	;volatile
  5023                           
  5024                           ;mcc_generated_files/adc.c: 125:     ADCON0bits.ADGO = 1;
  5025                           
  5026                           ;mcc_generated_files/adc.c: 122:     _delay((unsigned long)((5)*(500000/4000000.0)));
  5027  06E8  0021               	movlb	1	; select bank1
  5028  06E9  149D               	bsf	29,1	;volatile
  5029  06EA                     l130:	
  5030                           ;mcc_generated_files/adc.c: 131:     }
  5031                           
  5032                           ;mcc_generated_files/adc.c: 128:     while (ADCON0bits.ADGO)
  5033                           
  5034                           
  5035                           ;mcc_generated_files/adc.c: 128:     while (ADCON0bits.ADGO)
  5036  06EA  0021               	movlb	1	; select bank1
  5037  06EB  1C9D               	btfss	29,1	;volatile
  5038  06EC  2EEF               	goto	l1620
  5039  06ED  0064               	clrwdt	;# 
  5040  06EE  2EEA               	goto	l130
  5041  06EF                     l1620:	
  5042                           
  5043                           ;mcc_generated_files/adc.c: 134:     return ((adc_result_t)((ADRESH << 8) + ADRESL));
  5044  06EF  081C               	movf	28,w	;volatile
  5045  06F0  00F1               	movwf	?_ADC_GetConversion+1
  5046  06F1  081B               	movf	27,w	;volatile
  5047  06F2  00F0               	movwf	?_ADC_GetConversion
  5048  06F3  0008               	return
  5049  06F4                     __end_of_ADC_GetConversion:	
  5050  007E                     btemp	set	126	;btemp
  5051  007E                     wtemp0	set	126


Data Sizes:
    Strings     12
    Constant    475
    Data        7
    BSS         12
    Persistent  32
    Stack       0

Auto Spaces:
    Space          Size  Autos    Used
    COMMON           14     14      14
    BANK0            80      0      19
    BANK1            80      0       0
    BANK2            80      0       0
    BANK3            80      0       0
    BANK4            80      0       0
    BANK5            80      0       0
    BANK6            80      0       0
    BANK7            80      0       0
    BANK8            80      0       0
    BANK9            80      0       0
    BANK10           80      0       0
    BANK11           80      0       0
    BANK12           48      0       0

Pointer List with Targets:

    txt	PTR unsigned char  size(2) Largest target is 12
		 -> STR_1(CODE[12]), 

    SPI1_Exchange8bitBuffer@dataOut	PTR unsigned char  size(1) Largest target is 2
		 -> SPI@myWriteBuffer(COMMON[2]), 

    SPI1_Exchange8bitBuffer@dataIn	PTR unsigned char  size(1) Largest target is 2
		 -> SPI@myWriteBuffer(COMMON[2]), 


Critical Paths under _main in COMMON

    _main->_SPI
    _SPI->_SPI1_Exchange8bitBuffer
    _SPI1_Exchange8bitBuffer->_SPI1_Exchange8bit
    _PWM->_ADC_GetConversion

Critical Paths under _main in BANK0

    None.

Critical Paths under _main in BANK1

    None.

Critical Paths under _main in BANK2

    None.

Critical Paths under _main in BANK3

    None.

Critical Paths under _main in BANK4

    None.

Critical Paths under _main in BANK5

    None.

Critical Paths under _main in BANK6

    None.

Critical Paths under _main in BANK7

    None.

Critical Paths under _main in BANK8

    None.

Critical Paths under _main in BANK9

    None.

Critical Paths under _main in BANK10

    None.

Critical Paths under _main in BANK11

    None.

Critical Paths under _main in BANK12

    None.

Call Graph Tables:

 ---------------------------------------------------------------------------------
 (Depth) Function   	        Calls       Base Space   Used Autos Params    Refs
 ---------------------------------------------------------------------------------
 (0) _main                                                 0     0      0     913
                                _SPI
                  _SYSTEM_Initialize
 ---------------------------------------------------------------------------------
 (1) _SYSTEM_Initialize                                    0     0      0       0
                     _ADC_Initialize
              _OSCILLATOR_Initialize
             _PIN_MANAGER_Initialize
                     _PMD_Initialize
                    _PWM1_Initialize
                    _SPI1_Initialize
                    _TMR2_Initialize
                     _WDT_Initialize
 ---------------------------------------------------------------------------------
 (2) _WDT_Initialize                                       0     0      0       0
 ---------------------------------------------------------------------------------
 (2) _TMR2_Initialize                                      0     0      0       0
 ---------------------------------------------------------------------------------
 (2) _PWM1_Initialize                                      0     0      0       0
 ---------------------------------------------------------------------------------
 (2) _PMD_Initialize                                       0     0      0       0
 ---------------------------------------------------------------------------------
 (2) _PIN_MANAGER_Initialize                               0     0      0       0
 ---------------------------------------------------------------------------------
 (2) _OSCILLATOR_Initialize                                0     0      0       0
 ---------------------------------------------------------------------------------
 (2) _ADC_Initialize                                       0     0      0       0
 ---------------------------------------------------------------------------------
 (1) _SPI                                                  6     6      0     913
                                              8 COMMON     6     6      0
                                _PWM
            _SPI1_Exchange8bitBuffer
                    _SPI1_Initialize
 ---------------------------------------------------------------------------------
 (2) _SPI1_Initialize                                      0     0      0       0
 ---------------------------------------------------------------------------------
 (2) _SPI1_Exchange8bitBuffer                              7     5      2     584
                                              1 COMMON     7     5      2
                  _SPI1_Exchange8bit
 ---------------------------------------------------------------------------------
 (3) _SPI1_Exchange8bit                                    1     1      0      22
                                              0 COMMON     1     1      0
 ---------------------------------------------------------------------------------
 (2) _PWM                                                  2     2      0     188
                                              4 COMMON     2     2      0
                  _ADC_GetConversion
                 _PWM1_LoadDutyValue
              _PWM_Output_D7_Disable
               _PWM_Output_D7_Enable
                    _TMR2_StartTimer
 ---------------------------------------------------------------------------------
 (3) _TMR2_StartTimer                                      0     0      0       0
 ---------------------------------------------------------------------------------
 (3) _PWM_Output_D7_Enable                                 0     0      0       0
 ---------------------------------------------------------------------------------
 (3) _PWM_Output_D7_Disable                                0     0      0       0
 ---------------------------------------------------------------------------------
 (3) _PWM1_LoadDutyValue                                   2     0      2     166
                                              0 COMMON     2     0      2
 ---------------------------------------------------------------------------------
 (3) _ADC_GetConversion                                    4     2      2      22
                                              0 COMMON     4     2      2
 ---------------------------------------------------------------------------------
 Estimated maximum stack depth 3
 ---------------------------------------------------------------------------------

 Call Graph Graphs:

 _main (ROOT)
   _SPI
     _PWM
       _ADC_GetConversion
       _PWM1_LoadDutyValue
       _PWM_Output_D7_Disable
       _PWM_Output_D7_Enable
       _TMR2_StartTimer
     _SPI1_Exchange8bitBuffer
       _SPI1_Exchange8bit
     _SPI1_Initialize
   _SYSTEM_Initialize
     _ADC_Initialize
     _OSCILLATOR_Initialize
     _PIN_MANAGER_Initialize
     _PMD_Initialize
     _PWM1_Initialize
     _SPI1_Initialize
     _TMR2_Initialize
     _WDT_Initialize

 Address spaces:
Name               Size   Autos  Total    Cost      Usage
BIGRAM             3F0      0       0       0        0.0%
EEDATA             100      0       0       0        0.0%
NULL                 0      0       0       0        0.0%
CODE                 0      0       0       0        0.0%
BITCOMMON            E      0       0       1        0.0%
BITSFR0              0      0       0       1        0.0%
SFR0                 0      0       0       1        0.0%
COMMON               E      E       E       2      100.0%
BITSFR1              0      0       0       2        0.0%
SFR1                 0      0       0       2        0.0%
BITSFR2              0      0       0       3        0.0%
SFR2                 0      0       0       3        0.0%
STACK                0      0       0       3        0.0%
BITBANK0            50      0       0       4        0.0%
BITSFR3              0      0       0       4        0.0%
SFR3                 0      0       0       4        0.0%
BANK0               50      0      13       5       23.8%
BITSFR4              0      0       0       5        0.0%
SFR4                 0      0       0       5        0.0%
BITBANK1            50      0       0       6        0.0%
BITSFR5              0      0       0       6        0.0%
SFR5                 0      0       0       6        0.0%
BANK1               50      0       0       7        0.0%
BITSFR6              0      0       0       7        0.0%
SFR6                 0      0       0       7        0.0%
BITBANK2            50      0       0       8        0.0%
BITSFR7              0      0       0       8        0.0%
SFR7                 0      0       0       8        0.0%
BANK2               50      0       0       9        0.0%
BITSFR8              0      0       0       9        0.0%
SFR8                 0      0       0       9        0.0%
BITBANK3            50      0       0      10        0.0%
BITSFR9              0      0       0      10        0.0%
SFR9                 0      0       0      10        0.0%
BANK3               50      0       0      11        0.0%
BITSFR10             0      0       0      11        0.0%
SFR10                0      0       0      11        0.0%
BITBANK4            50      0       0      12        0.0%
BITSFR11             0      0       0      12        0.0%
SFR11                0      0       0      12        0.0%
BANK4               50      0       0      13        0.0%
BITSFR12             0      0       0      13        0.0%
SFR12                0      0       0      13        0.0%
BITBANK5            50      0       0      14        0.0%
BITSFR13             0      0       0      14        0.0%
SFR13                0      0       0      14        0.0%
BANK5               50      0       0      15        0.0%
BITSFR14             0      0       0      15        0.0%
SFR14                0      0       0      15        0.0%
BITBANK6            50      0       0      16        0.0%
BITSFR15             0      0       0      16        0.0%
SFR15                0      0       0      16        0.0%
BANK6               50      0       0      17        0.0%
BITSFR16             0      0       0      17        0.0%
SFR16                0      0       0      17        0.0%
BITBANK7            50      0       0      18        0.0%
BITSFR17             0      0       0      18        0.0%
SFR17                0      0       0      18        0.0%
BANK7               50      0       0      19        0.0%
BITSFR18             0      0       0      19        0.0%
SFR18                0      0       0      19        0.0%
BITSFR19             0      0       0      20        0.0%
SFR19                0      0       0      20        0.0%
ABS                  0      0      21      20        0.0%
BITBANK8            50      0       0      21        0.0%
BITSFR20             0      0       0      21        0.0%
SFR20                0      0       0      21        0.0%
BANK8               50      0       0      22        0.0%
BITSFR21             0      0       0      22        0.0%
SFR21                0      0       0      22        0.0%
BITBANK9            50      0       0      23        0.0%
BITSFR22             0      0       0      23        0.0%
SFR22                0      0       0      23        0.0%
BANK9               50      0       0      24        0.0%
BITSFR23             0      0       0      24        0.0%
SFR23                0      0       0      24        0.0%
BITBANK10           50      0       0      25        0.0%
BITSFR24             0      0       0      25        0.0%
SFR24                0      0       0      25        0.0%
BANK10              50      0       0      26        0.0%
BITSFR25             0      0       0      26        0.0%
SFR25                0      0       0      26        0.0%
BITBANK11           50      0       0      27        0.0%
BITSFR26             0      0       0      27        0.0%
SFR26                0      0       0      27        0.0%
BANK11              50      0       0      28        0.0%
BITSFR27             0      0       0      28        0.0%
SFR27                0      0       0      28        0.0%
BITBANK12           30      0       0      29        0.0%
BITSFR28             0      0       0      29        0.0%
SFR28                0      0       0      29        0.0%
BANK12              30      0       0      30        0.0%
BITSFR29             0      0       0      30        0.0%
SFR29                0      0       0      30        0.0%
BITSFR30             0      0       0      31        0.0%
SFR30                0      0       0      31        0.0%
DATA                 0      0      21      31        0.0%
BITSFR31             0      0       0      32        0.0%
SFR31                0      0       0      32        0.0%


Microchip Technology PIC Macro Assembler V2.05 build -831301201 
Symbol Table                                                                                   Sun Mar 03 16:43:03 2019

                  _SPI1_Exchange8bit 06BF                   ?_SPI1_Exchange8bit 0070  
                        __CFG_CP$OFF 0000                                   l18 06C4  
                        __CFG_LVP$ON 0000                                  l130 06EA  
                                _PR2 001E                         __CFG_CPD$OFF 0000  
                                u615 072A                                  u485 06D3  
                                _SPI 073A                                  u977 075E  
                                _PWM 070C                  ??_SPI1_Exchange8bit 0070  
                                _txt 002E              __size_of_PMD_Initialize 0008  
                    _TMR2_Initialize 06AD       SPI1_Exchange8bitBuffer@dataOut 0072  
                                wreg 0009                                 ?_SPI 0070  
                               ?_PWM 0070                                 l1602 06D7  
                               l1620 06EF                                 l1650 079F  
                               l1660 07CA                                 l1654 07AD  
                               l1670 07E4                                 l1592 06C9  
                               l1664 07CE                                 l1656 07C0  
                               l1728 0749                                 l1658 07C5  
                               l1668 07E0                                 l1688 071E  
                               l1778 068A                                 STR_1 09DB  
            __end_of_PWM1_Initialize 06BF                                 _LATA 010C  
                               _LATB 010D                                 _LATC 010E  
                               _PMD0 0911                                 _PMD1 0912  
                               _PMD2 0913                                 _PMD3 0914  
                               _PMD4 0915                                 _PMD5 0916  
                               _TMR2 001D                                 _WPUA 020C  
                               _WPUB 020D                                 _WPUC 020E  
                               _Font 0800                         __CFG_WRT$OFF 0000  
                      __CFG_FCMEN$ON 0000                                 _main 0687  
                               fsr0h 0005                                 fsr1h 0007  
                               fsr0l 0004                                 indf1 0001  
                               fsr1l 0006                                 btemp 007E  
                               _wrap 0030                        __CFG_BOREN$ON 0000  
                      __CFG_BORV$LOW 0000                                 start 0002  
          __end_of_SPI1_Exchange8bit 06CB                        __CFG_CSWEN$ON 0000  
                      __CFG_MCLRE$ON 0000                                ??_SPI 0078  
                              ??_PWM 0074       __size_of_OSCILLATOR_Initialize 0008  
      __end_of_OSCILLATOR_Initialize 06A5                                _ADACT 009F  
                              ?_main 0070                                _T2CON 001F  
                     __CFG_DEBUG$OFF 0000                                _OSCEN 091D  
                              _TRISA 008C                                _TRISB 008D  
                              _TRISC 008E                                _Font2 08FF  
            _SPI1_Exchange8bitBuffer 0796                       _WDT_Initialize 0677  
                              _event 0032                                _pause 0022  
                              _state 0023                                status 0003  
                              wtemp0 007E                      _TMR2_StartTimer 0670  
           __size_of_SPI1_Initialize 0006               ??_PWM_Output_D7_Enable 0070  
                    __initialization 07E6                         __end_of_Font 08FF  
                       __end_of_main 068E              __end_of_TMR2_Initialize 06B5  
                             ??_main 007E               __end_of_WDT_Initialize 067B  
                             _ADCON0 009D                               _ADCON1 009E  
                             _ADRESH 009C                               _ADRESL 009B  
                             _CCPR1H 0292                               _CCPR1L 0291  
                             _ANSELA 018C                               _ANSELB 018D  
                             _ANSELC 018E                   __CFG_RSTOSC$HFINT1 0000  
                             _RC0PPS 0EA0                     ?_PWM1_Initialize 0070  
                             _RB7PPS 0E9F                               _RC5PPS 0EA5  
                             _ODCONA 028C                               _ODCONB 028D  
                             _ODCONC 028E                               _OSCFRQ 091F  
                             _WDTCON 0097                SPI1_Exchange8bit@data 0070  
         __size_of_SPI1_Exchange8bit 000C                       __CFG_PWRTE$OFF 0000  
                     __CFG_STVREN$ON 0000                               _button 0024  
                     _PMD_Initialize 06A5            ??_SPI1_Exchange8bitBuffer 0073  
                    ?_WDT_Initialize 0070             ADC_GetConversion@channel 0073  
            __end_of_TMR2_StartTimer 0673                    _SYSTEM_Initialize 06F4  
            __end_of__initialization 07FD              ??_PWM_Output_D7_Disable 0070  
                 ?_SYSTEM_Initialize 0070                           _adcResult2 0020  
        PWM1_LoadDutyValue@dutyValue 0070                        __end_of_Font2 09DB  
                     __pcstackCOMMON 0070                         __pidataBANK0 068E  
                ??_SYSTEM_Initialize 0070                    ??_SPI1_Initialize 0070  
                 _PWM1_LoadDutyValue 06CB                     ?_TMR2_Initialize 0070  
             __end_of_PMD_Initialize 06AD                  ?_PWM1_LoadDutyValue 0070  
          __end_of_SYSTEM_Initialize 070C                           __pbssBANK0 0020  
               ??_PWM1_LoadDutyValue 0072                           __pmaintext 0687  
                    __CFG_PPS1WAY$ON 0000                              _CCP1CON 0293  
                    ?_PMD_Initialize 0070              __size_of_ADC_Initialize 0008  
                            _OSCCON1 0919                              _OSCCON3 091B  
                            _OSCTUNE 091E                              _SSP1ADD 0212  
                            _SLRCONA 030C                              _SLRCONB 030D  
                            _SLRCONC 030E                              _SSP1BUF 0211  
                   ?_TMR2_StartTimer 0070                              __ptext1 06F4  
                            __ptext2 0677                              __ptext3 06AD  
                            __ptext4 06B5                              __ptext5 06A5  
                            __ptext6 0768                              __ptext7 069D  
                            __ptext8 0695                              __ptext9 073A  
                       __size_of_SPI 002E                         __size_of_PWM 002E  
              _OSCILLATOR_Initialize 069D                            _T2CONbits 001F  
           ??_PIN_MANAGER_Initialize 0070           __size_of_SYSTEM_Initialize 0018  
                            _switch1 0025                 end_of_initialization 07FD  
                            init_ram 0681                              initloop 0682  
      __size_of_PWM_Output_D7_Enable 0004                     ??_WDT_Initialize 0070  
                   SPI@myWriteBuffer 007B                     __CFG_FEXTOSC$OFF 0000  
                        _CCP1CONbits 0293                      _SPI1_Initialize 067B  
     __size_of_PWM_Output_D7_Disable 0003        __end_of_PWM_Output_D7_Disable 0670  
           __size_of_PWM1_Initialize 000A                       _ADC_Initialize 0695  
             ?_OSCILLATOR_Initialize 0070                  start_initialization 07E6  
                        __end_of_SPI 0768                          __end_of_PWM 073A  
    __size_of_PIN_MANAGER_Initialize 002E                     __CFG_LPBOREN$OFF 0000  
                   ??_PMD_Initialize 0070                          _CCPTMRSbits 029F  
             __end_of_ADC_Initialize 069D                          __pdataBANK0 002C  
           ?_SPI1_Exchange8bitBuffer 0071                            ___latbits 0002  
                          _adcResult 0029             __size_of_TMR2_Initialize 0008  
            __end_of_SPI1_Initialize 0681          __size_of_PWM1_LoadDutyValue 0011  
             _PIN_MANAGER_Initialize 0768                             SPI@F6926 002C  
                    ?_ADC_Initialize 0070                    ??_PWM1_Initialize 0070  
                           SPI@total 007D                     __CFG_WDTE$SWDTEN 0000  
      SPI1_Exchange8bitBuffer@dataIn 0076                             _LATAbits 010C  
                           _LATBbits 010D                             _LATCbits 010E  
      SPI1_Exchange8bitBuffer@bufLen 0071             __size_of_TMR2_StartTimer 0003  
                           _PIR1bits 0011      __end_of_SPI1_Exchange8bitBuffer 07E6  
                           _SSP1CON1 0215                             _SSP1STAT 0214  
                          _rotateVal 0027                           _ADCON0bits 009D  
       __end_of_PWM_Output_D7_Enable 0677                     ?_SPI1_Initialize 0070  
                  ??_TMR2_Initialize 0070                    _ADC_GetConversion 06DC  
            ??_OSCILLATOR_Initialize 0070                   ?_ADC_GetConversion 0070  
                ??_ADC_GetConversion 0072                             _delayVal 0026  
                           __ptext10 067B                             __ptext11 0796  
                           __ptext12 06BF                             __ptext13 070C  
                           __ptext14 0670                             __ptext15 0673  
                           __ptext16 066D                             __ptext17 06CB  
                           __ptext18 06DC                         _SSP1CON1bits 0215  
                           _colstart 002B                        __size_of_main 0007  
          __end_of_ADC_GetConversion 06F4                _PWM_Output_D7_Disable 066D  
                  ??_TMR2_StartTimer 0070                         _SSP1STATbits 0214  
                           _rowstart 002A                          _secondCount 0028  
            __size_of_WDT_Initialize 0004     __size_of_SPI1_Exchange8bitBuffer 0050  
            ?_PIN_MANAGER_Initialize 0070                    __CFG_CLKOUTEN$OFF 0000  
SPI1_Exchange8bitBuffer@bytesWritten 0077                      _PWM1_Initialize 06B5  
                   ??_ADC_Initialize 0070                 _PWM_Output_D7_Enable 0673  
                      __pstringtext1 0800                        __pstringtext2 08FF  
                      __pstringtext3 0000                           _SSP1DATPPS 0E21  
                         _SSP1CLKPPS 0E20       __end_of_PIN_MANAGER_Initialize 0796  
         __end_of_PWM1_LoadDutyValue 06DC           __size_of_ADC_GetConversion 0018  
              ?_PWM_Output_D7_Enable 0070               ?_PWM_Output_D7_Disable 0070  
