

Microchip MPLAB XC8 Assembler V2.05 build -831301201 
                                                                                               Sun Feb 24 16:50:57 2019

Microchip MPLAB XC8 C Compiler v2.05 (Free license) build 20181220022703 Og1 
     1                           	processor	16F18345
     2                           	opt	pw 120
     3                           	opt	flic
     4                           	psect	idataBANK0,global,class=CODE,delta=2
     5                           	psect	cinit,global,class=CODE,merge=1,delta=2
     6                           	psect	bssCOMMON,global,class=COMMON,space=1,delta=1
     7                           	psect	bssBANK0,global,class=BANK0,space=1,delta=1
     8                           	psect	dataBANK0,global,class=BANK0,space=1,delta=1
     9                           	psect	cstackCOMMON,global,class=COMMON,space=1,delta=1
    10                           	psect	cstackBANK0,global,class=BANK0,space=1,delta=1
    11                           	psect	maintext,global,class=CODE,merge=1,split=1,delta=2
    12                           	psect	text1,local,class=CODE,merge=1,delta=2
    13                           	psect	text2,local,class=CODE,merge=1,delta=2
    14                           	psect	text3,local,class=CODE,merge=1,delta=2
    15                           	psect	text4,local,class=CODE,merge=1,delta=2
    16                           	psect	text5,local,class=CODE,merge=1,delta=2
    17                           	psect	text6,local,class=CODE,merge=1,delta=2
    18                           	psect	text7,local,class=CODE,merge=1,delta=2
    19                           	psect	text8,local,class=CODE,merge=1,delta=2
    20                           	psect	text9,local,class=CODE,merge=1,delta=2
    21                           	psect	text10,local,class=CODE,merge=1,delta=2
    22                           	psect	text11,local,class=CODE,merge=1,delta=2
    23                           	psect	text12,local,class=CODE,merge=1,delta=2
    24                           	dabs	1,0x7E,2
    25  0000                     
    26                           ; Version 2.05
    27                           ; Generated 20/12/2018 GMT
    28                           ; 
    29                           ; Copyright © 2018, Microchip Technology Inc. and its subsidiaries ("Microchip")
    30                           ; All rights reserved.
    31                           ; 
    32                           ; This software is developed by Microchip Technology Inc. and its subsidiaries ("Microch
      +                          ip").
    33                           ; 
    34                           ; Redistribution and use in source and binary forms, with or without modification, are
    35                           ; permitted provided that the following conditions are met:
    36                           ; 
    37                           ;     1. Redistributions of source code must retain the above copyright notice, this lis
      +                          t of
    38                           ;        conditions and the following disclaimer.
    39                           ; 
    40                           ;     2. Redistributions in binary form must reproduce the above copyright notice, this 
      +                          list
    41                           ;        of conditions and the following disclaimer in the documentation and/or other
    42                           ;        materials provided with the distribution.
    43                           ; 
    44                           ;     3. Microchip's name may not be used to endorse or promote products derived from th
      +                          is
    45                           ;        software without specific prior written permission.
    46                           ; 
    47                           ; THIS SOFTWARE IS PROVIDED BY MICROCHIP "AS IS" AND ANY EXPRESS OR IMPLIED WARRANTIES,
    48                           ; INCLUDING, BUT NOT LIMITED TO, THE IMPLIED WARRANTIES OF MERCHANTABILITY AND FITNESS F
      +                          OR
    49                           ; PURPOSE ARE DISCLAIMED.  IN NO EVENT SHALL MICROCHIP BE LIABLE FOR ANY DIRECT, INDIREC
      +                          T,
    50                           ; INCIDENTAL, SPECIAL, EXEMPLARY, OR CONSEQUENTIAL DAMAGES (INCLUDING BUT NOT LIMITED TO
    51                           ; PROCUREMENT OF SUBSTITUTE GOODS OR SERVICES; LOSS OF USE, DATA OR PROFITS; OR BUSINESS
    52                           ; INTERRUPTION) HOWSOEVER CAUSED AND ON ANY THEORY OF LIABILITY, WHETHER IN CONTRACT, ST
      +                          RICT
    53                           ; LIABILITY, OR TORT (INCLUDING NEGLIGENCE OR OTHERWISE) ARISING IN ANY WAY OUT OF THE U
      +                          SE OF
    54                           ; THIS SOFTWARE, EVEN IF ADVISED OF THE POSSIBILITY OF SUCH DAMAGE.
    55                           ; 
    56                           ; 
    57                           ; Code-generator required, PIC16F18345 Definitions
    58                           ; 
    59                           ; SFR Addresses
    60  0000                     	;# 
    61  0001                     	;# 
    62  0002                     	;# 
    63  0003                     	;# 
    64  0004                     	;# 
    65  0005                     	;# 
    66  0006                     	;# 
    67  0007                     	;# 
    68  0008                     	;# 
    69  0009                     	;# 
    70  000A                     	;# 
    71  000B                     	;# 
    72  000C                     	;# 
    73  000D                     	;# 
    74  000E                     	;# 
    75  0010                     	;# 
    76  0011                     	;# 
    77  0012                     	;# 
    78  0013                     	;# 
    79  0014                     	;# 
    80  0015                     	;# 
    81  0015                     	;# 
    82  0016                     	;# 
    83  0016                     	;# 
    84  0017                     	;# 
    85  0018                     	;# 
    86  0019                     	;# 
    87  0019                     	;# 
    88  001A                     	;# 
    89  001B                     	;# 
    90  001C                     	;# 
    91  001D                     	;# 
    92  001E                     	;# 
    93  001F                     	;# 
    94  008C                     	;# 
    95  008D                     	;# 
    96  008E                     	;# 
    97  0090                     	;# 
    98  0091                     	;# 
    99  0092                     	;# 
   100  0093                     	;# 
   101  0094                     	;# 
   102  0097                     	;# 
   103  009B                     	;# 
   104  009B                     	;# 
   105  009C                     	;# 
   106  009D                     	;# 
   107  009E                     	;# 
   108  009F                     	;# 
   109  010C                     	;# 
   110  010D                     	;# 
   111  010E                     	;# 
   112  0111                     	;# 
   113  0112                     	;# 
   114  0113                     	;# 
   115  0114                     	;# 
   116  0115                     	;# 
   117  0116                     	;# 
   118  0117                     	;# 
   119  0118                     	;# 
   120  0119                     	;# 
   121  018C                     	;# 
   122  018D                     	;# 
   123  018E                     	;# 
   124  0197                     	;# 
   125  0199                     	;# 
   126  0199                     	;# 
   127  0199                     	;# 
   128  019A                     	;# 
   129  019A                     	;# 
   130  019A                     	;# 
   131  019B                     	;# 
   132  019B                     	;# 
   133  019B                     	;# 
   134  019B                     	;# 
   135  019B                     	;# 
   136  019C                     	;# 
   137  019C                     	;# 
   138  019C                     	;# 
   139  019D                     	;# 
   140  019D                     	;# 
   141  019D                     	;# 
   142  019E                     	;# 
   143  019E                     	;# 
   144  019E                     	;# 
   145  019F                     	;# 
   146  019F                     	;# 
   147  019F                     	;# 
   148  019F                     	;# 
   149  019F                     	;# 
   150  020C                     	;# 
   151  020D                     	;# 
   152  020E                     	;# 
   153  0211                     	;# 
   154  0211                     	;# 
   155  0212                     	;# 
   156  0212                     	;# 
   157  0213                     	;# 
   158  0213                     	;# 
   159  0214                     	;# 
   160  0214                     	;# 
   161  0215                     	;# 
   162  0215                     	;# 
   163  0215                     	;# 
   164  0215                     	;# 
   165  0216                     	;# 
   166  0216                     	;# 
   167  0217                     	;# 
   168  0217                     	;# 
   169  0219                     	;# 
   170  021A                     	;# 
   171  021B                     	;# 
   172  021C                     	;# 
   173  021D                     	;# 
   174  021D                     	;# 
   175  021E                     	;# 
   176  021F                     	;# 
   177  028C                     	;# 
   178  028D                     	;# 
   179  028E                     	;# 
   180  0291                     	;# 
   181  0291                     	;# 
   182  0292                     	;# 
   183  0293                     	;# 
   184  0294                     	;# 
   185  0295                     	;# 
   186  0295                     	;# 
   187  0296                     	;# 
   188  0297                     	;# 
   189  0298                     	;# 
   190  029F                     	;# 
   191  030C                     	;# 
   192  030D                     	;# 
   193  030E                     	;# 
   194  0311                     	;# 
   195  0311                     	;# 
   196  0312                     	;# 
   197  0313                     	;# 
   198  0314                     	;# 
   199  0315                     	;# 
   200  0315                     	;# 
   201  0316                     	;# 
   202  0317                     	;# 
   203  0318                     	;# 
   204  038C                     	;# 
   205  038D                     	;# 
   206  038E                     	;# 
   207  0391                     	;# 
   208  0392                     	;# 
   209  0393                     	;# 
   210  0394                     	;# 
   211  0395                     	;# 
   212  0396                     	;# 
   213  0397                     	;# 
   214  0398                     	;# 
   215  0399                     	;# 
   216  039A                     	;# 
   217  039C                     	;# 
   218  039D                     	;# 
   219  039E                     	;# 
   220  039F                     	;# 
   221  0411                     	;# 
   222  0411                     	;# 
   223  0412                     	;# 
   224  0413                     	;# 
   225  0414                     	;# 
   226  0415                     	;# 
   227  0416                     	;# 
   228  0417                     	;# 
   229  0418                     	;# 
   230  0418                     	;# 
   231  0419                     	;# 
   232  041A                     	;# 
   233  041B                     	;# 
   234  041C                     	;# 
   235  041D                     	;# 
   236  041E                     	;# 
   237  041F                     	;# 
   238  0498                     	;# 
   239  0498                     	;# 
   240  0499                     	;# 
   241  049A                     	;# 
   242  049B                     	;# 
   243  049B                     	;# 
   244  049C                     	;# 
   245  049D                     	;# 
   246  049E                     	;# 
   247  049F                     	;# 
   248  0617                     	;# 
   249  0618                     	;# 
   250  0619                     	;# 
   251  0619                     	;# 
   252  061A                     	;# 
   253  061B                     	;# 
   254  061C                     	;# 
   255  061C                     	;# 
   256  061F                     	;# 
   257  0691                     	;# 
   258  0692                     	;# 
   259  0693                     	;# 
   260  0694                     	;# 
   261  0695                     	;# 
   262  0696                     	;# 
   263  0697                     	;# 
   264  0698                     	;# 
   265  0699                     	;# 
   266  0711                     	;# 
   267  0712                     	;# 
   268  0713                     	;# 
   269  0714                     	;# 
   270  0715                     	;# 
   271  0716                     	;# 
   272  0717                     	;# 
   273  0718                     	;# 
   274  0719                     	;# 
   275  0891                     	;# 
   276  0891                     	;# 
   277  0891                     	;# 
   278  0891                     	;# 
   279  0891                     	;# 
   280  0891                     	;# 
   281  0892                     	;# 
   282  0892                     	;# 
   283  0892                     	;# 
   284  0893                     	;# 
   285  0893                     	;# 
   286  0893                     	;# 
   287  0893                     	;# 
   288  0893                     	;# 
   289  0893                     	;# 
   290  0894                     	;# 
   291  0894                     	;# 
   292  0894                     	;# 
   293  0895                     	;# 
   294  0895                     	;# 
   295  0895                     	;# 
   296  0896                     	;# 
   297  0896                     	;# 
   298  0896                     	;# 
   299  089B                     	;# 
   300  0911                     	;# 
   301  0912                     	;# 
   302  0913                     	;# 
   303  0914                     	;# 
   304  0915                     	;# 
   305  0916                     	;# 
   306  0918                     	;# 
   307  0919                     	;# 
   308  091A                     	;# 
   309  091B                     	;# 
   310  091C                     	;# 
   311  091D                     	;# 
   312  091E                     	;# 
   313  091F                     	;# 
   314  0E0F                     	;# 
   315  0E10                     	;# 
   316  0E11                     	;# 
   317  0E12                     	;# 
   318  0E13                     	;# 
   319  0E14                     	;# 
   320  0E15                     	;# 
   321  0E16                     	;# 
   322  0E17                     	;# 
   323  0E18                     	;# 
   324  0E19                     	;# 
   325  0E1A                     	;# 
   326  0E1B                     	;# 
   327  0E1C                     	;# 
   328  0E1D                     	;# 
   329  0E1E                     	;# 
   330  0E1F                     	;# 
   331  0E20                     	;# 
   332  0E21                     	;# 
   333  0E22                     	;# 
   334  0E24                     	;# 
   335  0E25                     	;# 
   336  0E28                     	;# 
   337  0E29                     	;# 
   338  0E2A                     	;# 
   339  0E2B                     	;# 
   340  0E2C                     	;# 
   341  0E2D                     	;# 
   342  0E2E                     	;# 
   343  0E2F                     	;# 
   344  0E90                     	;# 
   345  0E91                     	;# 
   346  0E92                     	;# 
   347  0E94                     	;# 
   348  0E95                     	;# 
   349  0E9C                     	;# 
   350  0E9D                     	;# 
   351  0E9E                     	;# 
   352  0E9F                     	;# 
   353  0EA0                     	;# 
   354  0EA1                     	;# 
   355  0EA2                     	;# 
   356  0EA3                     	;# 
   357  0EA4                     	;# 
   358  0EA5                     	;# 
   359  0EA6                     	;# 
   360  0EA7                     	;# 
   361  0F0F                     	;# 
   362  0F10                     	;# 
   363  0F11                     	;# 
   364  0F12                     	;# 
   365  0F13                     	;# 
   366  0F14                     	;# 
   367  0F15                     	;# 
   368  0F16                     	;# 
   369  0F17                     	;# 
   370  0F18                     	;# 
   371  0F19                     	;# 
   372  0F1A                     	;# 
   373  0F1B                     	;# 
   374  0F1C                     	;# 
   375  0F1D                     	;# 
   376  0F1E                     	;# 
   377  0F1F                     	;# 
   378  0F20                     	;# 
   379  0F21                     	;# 
   380  0F22                     	;# 
   381  0F23                     	;# 
   382  0F24                     	;# 
   383  0F25                     	;# 
   384  0F26                     	;# 
   385  0F27                     	;# 
   386  0F28                     	;# 
   387  0F29                     	;# 
   388  0F2A                     	;# 
   389  0F2B                     	;# 
   390  0F2C                     	;# 
   391  0F2D                     	;# 
   392  0F2E                     	;# 
   393  0F2F                     	;# 
   394  0F30                     	;# 
   395  0F31                     	;# 
   396  0F32                     	;# 
   397  0F33                     	;# 
   398  0F34                     	;# 
   399  0F35                     	;# 
   400  0F36                     	;# 
   401  0F37                     	;# 
   402  0FE4                     	;# 
   403  0FE5                     	;# 
   404  0FE6                     	;# 
   405  0FE7                     	;# 
   406  0FE8                     	;# 
   407  0FE9                     	;# 
   408  0FEA                     	;# 
   409  0FEB                     	;# 
   410  0FED                     	;# 
   411  0FEE                     	;# 
   412  0FEF                     	;# 
   413  0000                     	;# 
   414  0001                     	;# 
   415  0002                     	;# 
   416  0003                     	;# 
   417  0004                     	;# 
   418  0005                     	;# 
   419  0006                     	;# 
   420  0007                     	;# 
   421  0008                     	;# 
   422  0009                     	;# 
   423  000A                     	;# 
   424  000B                     	;# 
   425  000C                     	;# 
   426  000D                     	;# 
   427  000E                     	;# 
   428  0010                     	;# 
   429  0011                     	;# 
   430  0012                     	;# 
   431  0013                     	;# 
   432  0014                     	;# 
   433  0015                     	;# 
   434  0015                     	;# 
   435  0016                     	;# 
   436  0016                     	;# 
   437  0017                     	;# 
   438  0018                     	;# 
   439  0019                     	;# 
   440  0019                     	;# 
   441  001A                     	;# 
   442  001B                     	;# 
   443  001C                     	;# 
   444  001D                     	;# 
   445  001E                     	;# 
   446  001F                     	;# 
   447  008C                     	;# 
   448  008D                     	;# 
   449  008E                     	;# 
   450  0090                     	;# 
   451  0091                     	;# 
   452  0092                     	;# 
   453  0093                     	;# 
   454  0094                     	;# 
   455  0097                     	;# 
   456  009B                     	;# 
   457  009B                     	;# 
   458  009C                     	;# 
   459  009D                     	;# 
   460  009E                     	;# 
   461  009F                     	;# 
   462  010C                     	;# 
   463  010D                     	;# 
   464  010E                     	;# 
   465  0111                     	;# 
   466  0112                     	;# 
   467  0113                     	;# 
   468  0114                     	;# 
   469  0115                     	;# 
   470  0116                     	;# 
   471  0117                     	;# 
   472  0118                     	;# 
   473  0119                     	;# 
   474  018C                     	;# 
   475  018D                     	;# 
   476  018E                     	;# 
   477  0197                     	;# 
   478  0199                     	;# 
   479  0199                     	;# 
   480  0199                     	;# 
   481  019A                     	;# 
   482  019A                     	;# 
   483  019A                     	;# 
   484  019B                     	;# 
   485  019B                     	;# 
   486  019B                     	;# 
   487  019B                     	;# 
   488  019B                     	;# 
   489  019C                     	;# 
   490  019C                     	;# 
   491  019C                     	;# 
   492  019D                     	;# 
   493  019D                     	;# 
   494  019D                     	;# 
   495  019E                     	;# 
   496  019E                     	;# 
   497  019E                     	;# 
   498  019F                     	;# 
   499  019F                     	;# 
   500  019F                     	;# 
   501  019F                     	;# 
   502  019F                     	;# 
   503  020C                     	;# 
   504  020D                     	;# 
   505  020E                     	;# 
   506  0211                     	;# 
   507  0211                     	;# 
   508  0212                     	;# 
   509  0212                     	;# 
   510  0213                     	;# 
   511  0213                     	;# 
   512  0214                     	;# 
   513  0214                     	;# 
   514  0215                     	;# 
   515  0215                     	;# 
   516  0215                     	;# 
   517  0215                     	;# 
   518  0216                     	;# 
   519  0216                     	;# 
   520  0217                     	;# 
   521  0217                     	;# 
   522  0219                     	;# 
   523  021A                     	;# 
   524  021B                     	;# 
   525  021C                     	;# 
   526  021D                     	;# 
   527  021D                     	;# 
   528  021E                     	;# 
   529  021F                     	;# 
   530  028C                     	;# 
   531  028D                     	;# 
   532  028E                     	;# 
   533  0291                     	;# 
   534  0291                     	;# 
   535  0292                     	;# 
   536  0293                     	;# 
   537  0294                     	;# 
   538  0295                     	;# 
   539  0295                     	;# 
   540  0296                     	;# 
   541  0297                     	;# 
   542  0298                     	;# 
   543  029F                     	;# 
   544  030C                     	;# 
   545  030D                     	;# 
   546  030E                     	;# 
   547  0311                     	;# 
   548  0311                     	;# 
   549  0312                     	;# 
   550  0313                     	;# 
   551  0314                     	;# 
   552  0315                     	;# 
   553  0315                     	;# 
   554  0316                     	;# 
   555  0317                     	;# 
   556  0318                     	;# 
   557  038C                     	;# 
   558  038D                     	;# 
   559  038E                     	;# 
   560  0391                     	;# 
   561  0392                     	;# 
   562  0393                     	;# 
   563  0394                     	;# 
   564  0395                     	;# 
   565  0396                     	;# 
   566  0397                     	;# 
   567  0398                     	;# 
   568  0399                     	;# 
   569  039A                     	;# 
   570  039C                     	;# 
   571  039D                     	;# 
   572  039E                     	;# 
   573  039F                     	;# 
   574  0411                     	;# 
   575  0411                     	;# 
   576  0412                     	;# 
   577  0413                     	;# 
   578  0414                     	;# 
   579  0415                     	;# 
   580  0416                     	;# 
   581  0417                     	;# 
   582  0418                     	;# 
   583  0418                     	;# 
   584  0419                     	;# 
   585  041A                     	;# 
   586  041B                     	;# 
   587  041C                     	;# 
   588  041D                     	;# 
   589  041E                     	;# 
   590  041F                     	;# 
   591  0498                     	;# 
   592  0498                     	;# 
   593  0499                     	;# 
   594  049A                     	;# 
   595  049B                     	;# 
   596  049B                     	;# 
   597  049C                     	;# 
   598  049D                     	;# 
   599  049E                     	;# 
   600  049F                     	;# 
   601  0617                     	;# 
   602  0618                     	;# 
   603  0619                     	;# 
   604  0619                     	;# 
   605  061A                     	;# 
   606  061B                     	;# 
   607  061C                     	;# 
   608  061C                     	;# 
   609  061F                     	;# 
   610  0691                     	;# 
   611  0692                     	;# 
   612  0693                     	;# 
   613  0694                     	;# 
   614  0695                     	;# 
   615  0696                     	;# 
   616  0697                     	;# 
   617  0698                     	;# 
   618  0699                     	;# 
   619  0711                     	;# 
   620  0712                     	;# 
   621  0713                     	;# 
   622  0714                     	;# 
   623  0715                     	;# 
   624  0716                     	;# 
   625  0717                     	;# 
   626  0718                     	;# 
   627  0719                     	;# 
   628  0891                     	;# 
   629  0891                     	;# 
   630  0891                     	;# 
   631  0891                     	;# 
   632  0891                     	;# 
   633  0891                     	;# 
   634  0892                     	;# 
   635  0892                     	;# 
   636  0892                     	;# 
   637  0893                     	;# 
   638  0893                     	;# 
   639  0893                     	;# 
   640  0893                     	;# 
   641  0893                     	;# 
   642  0893                     	;# 
   643  0894                     	;# 
   644  0894                     	;# 
   645  0894                     	;# 
   646  0895                     	;# 
   647  0895                     	;# 
   648  0895                     	;# 
   649  0896                     	;# 
   650  0896                     	;# 
   651  0896                     	;# 
   652  089B                     	;# 
   653  0911                     	;# 
   654  0912                     	;# 
   655  0913                     	;# 
   656  0914                     	;# 
   657  0915                     	;# 
   658  0916                     	;# 
   659  0918                     	;# 
   660  0919                     	;# 
   661  091A                     	;# 
   662  091B                     	;# 
   663  091C                     	;# 
   664  091D                     	;# 
   665  091E                     	;# 
   666  091F                     	;# 
   667  0E0F                     	;# 
   668  0E10                     	;# 
   669  0E11                     	;# 
   670  0E12                     	;# 
   671  0E13                     	;# 
   672  0E14                     	;# 
   673  0E15                     	;# 
   674  0E16                     	;# 
   675  0E17                     	;# 
   676  0E18                     	;# 
   677  0E19                     	;# 
   678  0E1A                     	;# 
   679  0E1B                     	;# 
   680  0E1C                     	;# 
   681  0E1D                     	;# 
   682  0E1E                     	;# 
   683  0E1F                     	;# 
   684  0E20                     	;# 
   685  0E21                     	;# 
   686  0E22                     	;# 
   687  0E24                     	;# 
   688  0E25                     	;# 
   689  0E28                     	;# 
   690  0E29                     	;# 
   691  0E2A                     	;# 
   692  0E2B                     	;# 
   693  0E2C                     	;# 
   694  0E2D                     	;# 
   695  0E2E                     	;# 
   696  0E2F                     	;# 
   697  0E90                     	;# 
   698  0E91                     	;# 
   699  0E92                     	;# 
   700  0E94                     	;# 
   701  0E95                     	;# 
   702  0E9C                     	;# 
   703  0E9D                     	;# 
   704  0E9E                     	;# 
   705  0E9F                     	;# 
   706  0EA0                     	;# 
   707  0EA1                     	;# 
   708  0EA2                     	;# 
   709  0EA3                     	;# 
   710  0EA4                     	;# 
   711  0EA5                     	;# 
   712  0EA6                     	;# 
   713  0EA7                     	;# 
   714  0F0F                     	;# 
   715  0F10                     	;# 
   716  0F11                     	;# 
   717  0F12                     	;# 
   718  0F13                     	;# 
   719  0F14                     	;# 
   720  0F15                     	;# 
   721  0F16                     	;# 
   722  0F17                     	;# 
   723  0F18                     	;# 
   724  0F19                     	;# 
   725  0F1A                     	;# 
   726  0F1B                     	;# 
   727  0F1C                     	;# 
   728  0F1D                     	;# 
   729  0F1E                     	;# 
   730  0F1F                     	;# 
   731  0F20                     	;# 
   732  0F21                     	;# 
   733  0F22                     	;# 
   734  0F23                     	;# 
   735  0F24                     	;# 
   736  0F25                     	;# 
   737  0F26                     	;# 
   738  0F27                     	;# 
   739  0F28                     	;# 
   740  0F29                     	;# 
   741  0F2A                     	;# 
   742  0F2B                     	;# 
   743  0F2C                     	;# 
   744  0F2D                     	;# 
   745  0F2E                     	;# 
   746  0F2F                     	;# 
   747  0F30                     	;# 
   748  0F31                     	;# 
   749  0F32                     	;# 
   750  0F33                     	;# 
   751  0F34                     	;# 
   752  0F35                     	;# 
   753  0F36                     	;# 
   754  0F37                     	;# 
   755  0FE4                     	;# 
   756  0FE5                     	;# 
   757  0FE6                     	;# 
   758  0FE7                     	;# 
   759  0FE8                     	;# 
   760  0FE9                     	;# 
   761  0FEA                     	;# 
   762  0FEB                     	;# 
   763  0FED                     	;# 
   764  0FEE                     	;# 
   765  0FEF                     	;# 
   766  0000                     	;# 
   767  0001                     	;# 
   768  0002                     	;# 
   769  0003                     	;# 
   770  0004                     	;# 
   771  0005                     	;# 
   772  0006                     	;# 
   773  0007                     	;# 
   774  0008                     	;# 
   775  0009                     	;# 
   776  000A                     	;# 
   777  000B                     	;# 
   778  000C                     	;# 
   779  000D                     	;# 
   780  000E                     	;# 
   781  0010                     	;# 
   782  0011                     	;# 
   783  0012                     	;# 
   784  0013                     	;# 
   785  0014                     	;# 
   786  0015                     	;# 
   787  0015                     	;# 
   788  0016                     	;# 
   789  0016                     	;# 
   790  0017                     	;# 
   791  0018                     	;# 
   792  0019                     	;# 
   793  0019                     	;# 
   794  001A                     	;# 
   795  001B                     	;# 
   796  001C                     	;# 
   797  001D                     	;# 
   798  001E                     	;# 
   799  001F                     	;# 
   800  008C                     	;# 
   801  008D                     	;# 
   802  008E                     	;# 
   803  0090                     	;# 
   804  0091                     	;# 
   805  0092                     	;# 
   806  0093                     	;# 
   807  0094                     	;# 
   808  0097                     	;# 
   809  009B                     	;# 
   810  009B                     	;# 
   811  009C                     	;# 
   812  009D                     	;# 
   813  009E                     	;# 
   814  009F                     	;# 
   815  010C                     	;# 
   816  010D                     	;# 
   817  010E                     	;# 
   818  0111                     	;# 
   819  0112                     	;# 
   820  0113                     	;# 
   821  0114                     	;# 
   822  0115                     	;# 
   823  0116                     	;# 
   824  0117                     	;# 
   825  0118                     	;# 
   826  0119                     	;# 
   827  018C                     	;# 
   828  018D                     	;# 
   829  018E                     	;# 
   830  0197                     	;# 
   831  0199                     	;# 
   832  0199                     	;# 
   833  0199                     	;# 
   834  019A                     	;# 
   835  019A                     	;# 
   836  019A                     	;# 
   837  019B                     	;# 
   838  019B                     	;# 
   839  019B                     	;# 
   840  019B                     	;# 
   841  019B                     	;# 
   842  019C                     	;# 
   843  019C                     	;# 
   844  019C                     	;# 
   845  019D                     	;# 
   846  019D                     	;# 
   847  019D                     	;# 
   848  019E                     	;# 
   849  019E                     	;# 
   850  019E                     	;# 
   851  019F                     	;# 
   852  019F                     	;# 
   853  019F                     	;# 
   854  019F                     	;# 
   855  019F                     	;# 
   856  020C                     	;# 
   857  020D                     	;# 
   858  020E                     	;# 
   859  0211                     	;# 
   860  0211                     	;# 
   861  0212                     	;# 
   862  0212                     	;# 
   863  0213                     	;# 
   864  0213                     	;# 
   865  0214                     	;# 
   866  0214                     	;# 
   867  0215                     	;# 
   868  0215                     	;# 
   869  0215                     	;# 
   870  0215                     	;# 
   871  0216                     	;# 
   872  0216                     	;# 
   873  0217                     	;# 
   874  0217                     	;# 
   875  0219                     	;# 
   876  021A                     	;# 
   877  021B                     	;# 
   878  021C                     	;# 
   879  021D                     	;# 
   880  021D                     	;# 
   881  021E                     	;# 
   882  021F                     	;# 
   883  028C                     	;# 
   884  028D                     	;# 
   885  028E                     	;# 
   886  0291                     	;# 
   887  0291                     	;# 
   888  0292                     	;# 
   889  0293                     	;# 
   890  0294                     	;# 
   891  0295                     	;# 
   892  0295                     	;# 
   893  0296                     	;# 
   894  0297                     	;# 
   895  0298                     	;# 
   896  029F                     	;# 
   897  030C                     	;# 
   898  030D                     	;# 
   899  030E                     	;# 
   900  0311                     	;# 
   901  0311                     	;# 
   902  0312                     	;# 
   903  0313                     	;# 
   904  0314                     	;# 
   905  0315                     	;# 
   906  0315                     	;# 
   907  0316                     	;# 
   908  0317                     	;# 
   909  0318                     	;# 
   910  038C                     	;# 
   911  038D                     	;# 
   912  038E                     	;# 
   913  0391                     	;# 
   914  0392                     	;# 
   915  0393                     	;# 
   916  0394                     	;# 
   917  0395                     	;# 
   918  0396                     	;# 
   919  0397                     	;# 
   920  0398                     	;# 
   921  0399                     	;# 
   922  039A                     	;# 
   923  039C                     	;# 
   924  039D                     	;# 
   925  039E                     	;# 
   926  039F                     	;# 
   927  0411                     	;# 
   928  0411                     	;# 
   929  0412                     	;# 
   930  0413                     	;# 
   931  0414                     	;# 
   932  0415                     	;# 
   933  0416                     	;# 
   934  0417                     	;# 
   935  0418                     	;# 
   936  0418                     	;# 
   937  0419                     	;# 
   938  041A                     	;# 
   939  041B                     	;# 
   940  041C                     	;# 
   941  041D                     	;# 
   942  041E                     	;# 
   943  041F                     	;# 
   944  0498                     	;# 
   945  0498                     	;# 
   946  0499                     	;# 
   947  049A                     	;# 
   948  049B                     	;# 
   949  049B                     	;# 
   950  049C                     	;# 
   951  049D                     	;# 
   952  049E                     	;# 
   953  049F                     	;# 
   954  0617                     	;# 
   955  0618                     	;# 
   956  0619                     	;# 
   957  0619                     	;# 
   958  061A                     	;# 
   959  061B                     	;# 
   960  061C                     	;# 
   961  061C                     	;# 
   962  061F                     	;# 
   963  0691                     	;# 
   964  0692                     	;# 
   965  0693                     	;# 
   966  0694                     	;# 
   967  0695                     	;# 
   968  0696                     	;# 
   969  0697                     	;# 
   970  0698                     	;# 
   971  0699                     	;# 
   972  0711                     	;# 
   973  0712                     	;# 
   974  0713                     	;# 
   975  0714                     	;# 
   976  0715                     	;# 
   977  0716                     	;# 
   978  0717                     	;# 
   979  0718                     	;# 
   980  0719                     	;# 
   981  0891                     	;# 
   982  0891                     	;# 
   983  0891                     	;# 
   984  0891                     	;# 
   985  0891                     	;# 
   986  0891                     	;# 
   987  0892                     	;# 
   988  0892                     	;# 
   989  0892                     	;# 
   990  0893                     	;# 
   991  0893                     	;# 
   992  0893                     	;# 
   993  0893                     	;# 
   994  0893                     	;# 
   995  0893                     	;# 
   996  0894                     	;# 
   997  0894                     	;# 
   998  0894                     	;# 
   999  0895                     	;# 
  1000  0895                     	;# 
  1001  0895                     	;# 
  1002  0896                     	;# 
  1003  0896                     	;# 
  1004  0896                     	;# 
  1005  089B                     	;# 
  1006  0911                     	;# 
  1007  0912                     	;# 
  1008  0913                     	;# 
  1009  0914                     	;# 
  1010  0915                     	;# 
  1011  0916                     	;# 
  1012  0918                     	;# 
  1013  0919                     	;# 
  1014  091A                     	;# 
  1015  091B                     	;# 
  1016  091C                     	;# 
  1017  091D                     	;# 
  1018  091E                     	;# 
  1019  091F                     	;# 
  1020  0E0F                     	;# 
  1021  0E10                     	;# 
  1022  0E11                     	;# 
  1023  0E12                     	;# 
  1024  0E13                     	;# 
  1025  0E14                     	;# 
  1026  0E15                     	;# 
  1027  0E16                     	;# 
  1028  0E17                     	;# 
  1029  0E18                     	;# 
  1030  0E19                     	;# 
  1031  0E1A                     	;# 
  1032  0E1B                     	;# 
  1033  0E1C                     	;# 
  1034  0E1D                     	;# 
  1035  0E1E                     	;# 
  1036  0E1F                     	;# 
  1037  0E20                     	;# 
  1038  0E21                     	;# 
  1039  0E22                     	;# 
  1040  0E24                     	;# 
  1041  0E25                     	;# 
  1042  0E28                     	;# 
  1043  0E29                     	;# 
  1044  0E2A                     	;# 
  1045  0E2B                     	;# 
  1046  0E2C                     	;# 
  1047  0E2D                     	;# 
  1048  0E2E                     	;# 
  1049  0E2F                     	;# 
  1050  0E90                     	;# 
  1051  0E91                     	;# 
  1052  0E92                     	;# 
  1053  0E94                     	;# 
  1054  0E95                     	;# 
  1055  0E9C                     	;# 
  1056  0E9D                     	;# 
  1057  0E9E                     	;# 
  1058  0E9F                     	;# 
  1059  0EA0                     	;# 
  1060  0EA1                     	;# 
  1061  0EA2                     	;# 
  1062  0EA3                     	;# 
  1063  0EA4                     	;# 
  1064  0EA5                     	;# 
  1065  0EA6                     	;# 
  1066  0EA7                     	;# 
  1067  0F0F                     	;# 
  1068  0F10                     	;# 
  1069  0F11                     	;# 
  1070  0F12                     	;# 
  1071  0F13                     	;# 
  1072  0F14                     	;# 
  1073  0F15                     	;# 
  1074  0F16                     	;# 
  1075  0F17                     	;# 
  1076  0F18                     	;# 
  1077  0F19                     	;# 
  1078  0F1A                     	;# 
  1079  0F1B                     	;# 
  1080  0F1C                     	;# 
  1081  0F1D                     	;# 
  1082  0F1E                     	;# 
  1083  0F1F                     	;# 
  1084  0F20                     	;# 
  1085  0F21                     	;# 
  1086  0F22                     	;# 
  1087  0F23                     	;# 
  1088  0F24                     	;# 
  1089  0F25                     	;# 
  1090  0F26                     	;# 
  1091  0F27                     	;# 
  1092  0F28                     	;# 
  1093  0F29                     	;# 
  1094  0F2A                     	;# 
  1095  0F2B                     	;# 
  1096  0F2C                     	;# 
  1097  0F2D                     	;# 
  1098  0F2E                     	;# 
  1099  0F2F                     	;# 
  1100  0F30                     	;# 
  1101  0F31                     	;# 
  1102  0F32                     	;# 
  1103  0F33                     	;# 
  1104  0F34                     	;# 
  1105  0F35                     	;# 
  1106  0F36                     	;# 
  1107  0F37                     	;# 
  1108  0FE4                     	;# 
  1109  0FE5                     	;# 
  1110  0FE6                     	;# 
  1111  0FE7                     	;# 
  1112  0FE8                     	;# 
  1113  0FE9                     	;# 
  1114  0FEA                     	;# 
  1115  0FEB                     	;# 
  1116  0FED                     	;# 
  1117  0FEE                     	;# 
  1118  0FEF                     	;# 
  1119  0000                     	;# 
  1120  0001                     	;# 
  1121  0002                     	;# 
  1122  0003                     	;# 
  1123  0004                     	;# 
  1124  0005                     	;# 
  1125  0006                     	;# 
  1126  0007                     	;# 
  1127  0008                     	;# 
  1128  0009                     	;# 
  1129  000A                     	;# 
  1130  000B                     	;# 
  1131  000C                     	;# 
  1132  000D                     	;# 
  1133  000E                     	;# 
  1134  0010                     	;# 
  1135  0011                     	;# 
  1136  0012                     	;# 
  1137  0013                     	;# 
  1138  0014                     	;# 
  1139  0015                     	;# 
  1140  0015                     	;# 
  1141  0016                     	;# 
  1142  0016                     	;# 
  1143  0017                     	;# 
  1144  0018                     	;# 
  1145  0019                     	;# 
  1146  0019                     	;# 
  1147  001A                     	;# 
  1148  001B                     	;# 
  1149  001C                     	;# 
  1150  001D                     	;# 
  1151  001E                     	;# 
  1152  001F                     	;# 
  1153  008C                     	;# 
  1154  008D                     	;# 
  1155  008E                     	;# 
  1156  0090                     	;# 
  1157  0091                     	;# 
  1158  0092                     	;# 
  1159  0093                     	;# 
  1160  0094                     	;# 
  1161  0097                     	;# 
  1162  009B                     	;# 
  1163  009B                     	;# 
  1164  009C                     	;# 
  1165  009D                     	;# 
  1166  009E                     	;# 
  1167  009F                     	;# 
  1168  010C                     	;# 
  1169  010D                     	;# 
  1170  010E                     	;# 
  1171  0111                     	;# 
  1172  0112                     	;# 
  1173  0113                     	;# 
  1174  0114                     	;# 
  1175  0115                     	;# 
  1176  0116                     	;# 
  1177  0117                     	;# 
  1178  0118                     	;# 
  1179  0119                     	;# 
  1180  018C                     	;# 
  1181  018D                     	;# 
  1182  018E                     	;# 
  1183  0197                     	;# 
  1184  0199                     	;# 
  1185  0199                     	;# 
  1186  0199                     	;# 
  1187  019A                     	;# 
  1188  019A                     	;# 
  1189  019A                     	;# 
  1190  019B                     	;# 
  1191  019B                     	;# 
  1192  019B                     	;# 
  1193  019B                     	;# 
  1194  019B                     	;# 
  1195  019C                     	;# 
  1196  019C                     	;# 
  1197  019C                     	;# 
  1198  019D                     	;# 
  1199  019D                     	;# 
  1200  019D                     	;# 
  1201  019E                     	;# 
  1202  019E                     	;# 
  1203  019E                     	;# 
  1204  019F                     	;# 
  1205  019F                     	;# 
  1206  019F                     	;# 
  1207  019F                     	;# 
  1208  019F                     	;# 
  1209  020C                     	;# 
  1210  020D                     	;# 
  1211  020E                     	;# 
  1212  0211                     	;# 
  1213  0211                     	;# 
  1214  0212                     	;# 
  1215  0212                     	;# 
  1216  0213                     	;# 
  1217  0213                     	;# 
  1218  0214                     	;# 
  1219  0214                     	;# 
  1220  0215                     	;# 
  1221  0215                     	;# 
  1222  0215                     	;# 
  1223  0215                     	;# 
  1224  0216                     	;# 
  1225  0216                     	;# 
  1226  0217                     	;# 
  1227  0217                     	;# 
  1228  0219                     	;# 
  1229  021A                     	;# 
  1230  021B                     	;# 
  1231  021C                     	;# 
  1232  021D                     	;# 
  1233  021D                     	;# 
  1234  021E                     	;# 
  1235  021F                     	;# 
  1236  028C                     	;# 
  1237  028D                     	;# 
  1238  028E                     	;# 
  1239  0291                     	;# 
  1240  0291                     	;# 
  1241  0292                     	;# 
  1242  0293                     	;# 
  1243  0294                     	;# 
  1244  0295                     	;# 
  1245  0295                     	;# 
  1246  0296                     	;# 
  1247  0297                     	;# 
  1248  0298                     	;# 
  1249  029F                     	;# 
  1250  030C                     	;# 
  1251  030D                     	;# 
  1252  030E                     	;# 
  1253  0311                     	;# 
  1254  0311                     	;# 
  1255  0312                     	;# 
  1256  0313                     	;# 
  1257  0314                     	;# 
  1258  0315                     	;# 
  1259  0315                     	;# 
  1260  0316                     	;# 
  1261  0317                     	;# 
  1262  0318                     	;# 
  1263  038C                     	;# 
  1264  038D                     	;# 
  1265  038E                     	;# 
  1266  0391                     	;# 
  1267  0392                     	;# 
  1268  0393                     	;# 
  1269  0394                     	;# 
  1270  0395                     	;# 
  1271  0396                     	;# 
  1272  0397                     	;# 
  1273  0398                     	;# 
  1274  0399                     	;# 
  1275  039A                     	;# 
  1276  039C                     	;# 
  1277  039D                     	;# 
  1278  039E                     	;# 
  1279  039F                     	;# 
  1280  0411                     	;# 
  1281  0411                     	;# 
  1282  0412                     	;# 
  1283  0413                     	;# 
  1284  0414                     	;# 
  1285  0415                     	;# 
  1286  0416                     	;# 
  1287  0417                     	;# 
  1288  0418                     	;# 
  1289  0418                     	;# 
  1290  0419                     	;# 
  1291  041A                     	;# 
  1292  041B                     	;# 
  1293  041C                     	;# 
  1294  041D                     	;# 
  1295  041E                     	;# 
  1296  041F                     	;# 
  1297  0498                     	;# 
  1298  0498                     	;# 
  1299  0499                     	;# 
  1300  049A                     	;# 
  1301  049B                     	;# 
  1302  049B                     	;# 
  1303  049C                     	;# 
  1304  049D                     	;# 
  1305  049E                     	;# 
  1306  049F                     	;# 
  1307  0617                     	;# 
  1308  0618                     	;# 
  1309  0619                     	;# 
  1310  0619                     	;# 
  1311  061A                     	;# 
  1312  061B                     	;# 
  1313  061C                     	;# 
  1314  061C                     	;# 
  1315  061F                     	;# 
  1316  0691                     	;# 
  1317  0692                     	;# 
  1318  0693                     	;# 
  1319  0694                     	;# 
  1320  0695                     	;# 
  1321  0696                     	;# 
  1322  0697                     	;# 
  1323  0698                     	;# 
  1324  0699                     	;# 
  1325  0711                     	;# 
  1326  0712                     	;# 
  1327  0713                     	;# 
  1328  0714                     	;# 
  1329  0715                     	;# 
  1330  0716                     	;# 
  1331  0717                     	;# 
  1332  0718                     	;# 
  1333  0719                     	;# 
  1334  0891                     	;# 
  1335  0891                     	;# 
  1336  0891                     	;# 
  1337  0891                     	;# 
  1338  0891                     	;# 
  1339  0891                     	;# 
  1340  0892                     	;# 
  1341  0892                     	;# 
  1342  0892                     	;# 
  1343  0893                     	;# 
  1344  0893                     	;# 
  1345  0893                     	;# 
  1346  0893                     	;# 
  1347  0893                     	;# 
  1348  0893                     	;# 
  1349  0894                     	;# 
  1350  0894                     	;# 
  1351  0894                     	;# 
  1352  0895                     	;# 
  1353  0895                     	;# 
  1354  0895                     	;# 
  1355  0896                     	;# 
  1356  0896                     	;# 
  1357  0896                     	;# 
  1358  089B                     	;# 
  1359  0911                     	;# 
  1360  0912                     	;# 
  1361  0913                     	;# 
  1362  0914                     	;# 
  1363  0915                     	;# 
  1364  0916                     	;# 
  1365  0918                     	;# 
  1366  0919                     	;# 
  1367  091A                     	;# 
  1368  091B                     	;# 
  1369  091C                     	;# 
  1370  091D                     	;# 
  1371  091E                     	;# 
  1372  091F                     	;# 
  1373  0E0F                     	;# 
  1374  0E10                     	;# 
  1375  0E11                     	;# 
  1376  0E12                     	;# 
  1377  0E13                     	;# 
  1378  0E14                     	;# 
  1379  0E15                     	;# 
  1380  0E16                     	;# 
  1381  0E17                     	;# 
  1382  0E18                     	;# 
  1383  0E19                     	;# 
  1384  0E1A                     	;# 
  1385  0E1B                     	;# 
  1386  0E1C                     	;# 
  1387  0E1D                     	;# 
  1388  0E1E                     	;# 
  1389  0E1F                     	;# 
  1390  0E20                     	;# 
  1391  0E21                     	;# 
  1392  0E22                     	;# 
  1393  0E24                     	;# 
  1394  0E25                     	;# 
  1395  0E28                     	;# 
  1396  0E29                     	;# 
  1397  0E2A                     	;# 
  1398  0E2B                     	;# 
  1399  0E2C                     	;# 
  1400  0E2D                     	;# 
  1401  0E2E                     	;# 
  1402  0E2F                     	;# 
  1403  0E90                     	;# 
  1404  0E91                     	;# 
  1405  0E92                     	;# 
  1406  0E94                     	;# 
  1407  0E95                     	;# 
  1408  0E9C                     	;# 
  1409  0E9D                     	;# 
  1410  0E9E                     	;# 
  1411  0E9F                     	;# 
  1412  0EA0                     	;# 
  1413  0EA1                     	;# 
  1414  0EA2                     	;# 
  1415  0EA3                     	;# 
  1416  0EA4                     	;# 
  1417  0EA5                     	;# 
  1418  0EA6                     	;# 
  1419  0EA7                     	;# 
  1420  0F0F                     	;# 
  1421  0F10                     	;# 
  1422  0F11                     	;# 
  1423  0F12                     	;# 
  1424  0F13                     	;# 
  1425  0F14                     	;# 
  1426  0F15                     	;# 
  1427  0F16                     	;# 
  1428  0F17                     	;# 
  1429  0F18                     	;# 
  1430  0F19                     	;# 
  1431  0F1A                     	;# 
  1432  0F1B                     	;# 
  1433  0F1C                     	;# 
  1434  0F1D                     	;# 
  1435  0F1E                     	;# 
  1436  0F1F                     	;# 
  1437  0F20                     	;# 
  1438  0F21                     	;# 
  1439  0F22                     	;# 
  1440  0F23                     	;# 
  1441  0F24                     	;# 
  1442  0F25                     	;# 
  1443  0F26                     	;# 
  1444  0F27                     	;# 
  1445  0F28                     	;# 
  1446  0F29                     	;# 
  1447  0F2A                     	;# 
  1448  0F2B                     	;# 
  1449  0F2C                     	;# 
  1450  0F2D                     	;# 
  1451  0F2E                     	;# 
  1452  0F2F                     	;# 
  1453  0F30                     	;# 
  1454  0F31                     	;# 
  1455  0F32                     	;# 
  1456  0F33                     	;# 
  1457  0F34                     	;# 
  1458  0F35                     	;# 
  1459  0F36                     	;# 
  1460  0F37                     	;# 
  1461  0FE4                     	;# 
  1462  0FE5                     	;# 
  1463  0FE6                     	;# 
  1464  0FE7                     	;# 
  1465  0FE8                     	;# 
  1466  0FE9                     	;# 
  1467  0FEA                     	;# 
  1468  0FEB                     	;# 
  1469  0FED                     	;# 
  1470  0FEE                     	;# 
  1471  0FEF                     	;# 
  1472  0000                     	;# 
  1473  0001                     	;# 
  1474  0002                     	;# 
  1475  0003                     	;# 
  1476  0004                     	;# 
  1477  0005                     	;# 
  1478  0006                     	;# 
  1479  0007                     	;# 
  1480  0008                     	;# 
  1481  0009                     	;# 
  1482  000A                     	;# 
  1483  000B                     	;# 
  1484  000C                     	;# 
  1485  000D                     	;# 
  1486  000E                     	;# 
  1487  0010                     	;# 
  1488  0011                     	;# 
  1489  0012                     	;# 
  1490  0013                     	;# 
  1491  0014                     	;# 
  1492  0015                     	;# 
  1493  0015                     	;# 
  1494  0016                     	;# 
  1495  0016                     	;# 
  1496  0017                     	;# 
  1497  0018                     	;# 
  1498  0019                     	;# 
  1499  0019                     	;# 
  1500  001A                     	;# 
  1501  001B                     	;# 
  1502  001C                     	;# 
  1503  001D                     	;# 
  1504  001E                     	;# 
  1505  001F                     	;# 
  1506  008C                     	;# 
  1507  008D                     	;# 
  1508  008E                     	;# 
  1509  0090                     	;# 
  1510  0091                     	;# 
  1511  0092                     	;# 
  1512  0093                     	;# 
  1513  0094                     	;# 
  1514  0097                     	;# 
  1515  009B                     	;# 
  1516  009B                     	;# 
  1517  009C                     	;# 
  1518  009D                     	;# 
  1519  009E                     	;# 
  1520  009F                     	;# 
  1521  010C                     	;# 
  1522  010D                     	;# 
  1523  010E                     	;# 
  1524  0111                     	;# 
  1525  0112                     	;# 
  1526  0113                     	;# 
  1527  0114                     	;# 
  1528  0115                     	;# 
  1529  0116                     	;# 
  1530  0117                     	;# 
  1531  0118                     	;# 
  1532  0119                     	;# 
  1533  018C                     	;# 
  1534  018D                     	;# 
  1535  018E                     	;# 
  1536  0197                     	;# 
  1537  0199                     	;# 
  1538  0199                     	;# 
  1539  0199                     	;# 
  1540  019A                     	;# 
  1541  019A                     	;# 
  1542  019A                     	;# 
  1543  019B                     	;# 
  1544  019B                     	;# 
  1545  019B                     	;# 
  1546  019B                     	;# 
  1547  019B                     	;# 
  1548  019C                     	;# 
  1549  019C                     	;# 
  1550  019C                     	;# 
  1551  019D                     	;# 
  1552  019D                     	;# 
  1553  019D                     	;# 
  1554  019E                     	;# 
  1555  019E                     	;# 
  1556  019E                     	;# 
  1557  019F                     	;# 
  1558  019F                     	;# 
  1559  019F                     	;# 
  1560  019F                     	;# 
  1561  019F                     	;# 
  1562  020C                     	;# 
  1563  020D                     	;# 
  1564  020E                     	;# 
  1565  0211                     	;# 
  1566  0211                     	;# 
  1567  0212                     	;# 
  1568  0212                     	;# 
  1569  0213                     	;# 
  1570  0213                     	;# 
  1571  0214                     	;# 
  1572  0214                     	;# 
  1573  0215                     	;# 
  1574  0215                     	;# 
  1575  0215                     	;# 
  1576  0215                     	;# 
  1577  0216                     	;# 
  1578  0216                     	;# 
  1579  0217                     	;# 
  1580  0217                     	;# 
  1581  0219                     	;# 
  1582  021A                     	;# 
  1583  021B                     	;# 
  1584  021C                     	;# 
  1585  021D                     	;# 
  1586  021D                     	;# 
  1587  021E                     	;# 
  1588  021F                     	;# 
  1589  028C                     	;# 
  1590  028D                     	;# 
  1591  028E                     	;# 
  1592  0291                     	;# 
  1593  0291                     	;# 
  1594  0292                     	;# 
  1595  0293                     	;# 
  1596  0294                     	;# 
  1597  0295                     	;# 
  1598  0295                     	;# 
  1599  0296                     	;# 
  1600  0297                     	;# 
  1601  0298                     	;# 
  1602  029F                     	;# 
  1603  030C                     	;# 
  1604  030D                     	;# 
  1605  030E                     	;# 
  1606  0311                     	;# 
  1607  0311                     	;# 
  1608  0312                     	;# 
  1609  0313                     	;# 
  1610  0314                     	;# 
  1611  0315                     	;# 
  1612  0315                     	;# 
  1613  0316                     	;# 
  1614  0317                     	;# 
  1615  0318                     	;# 
  1616  038C                     	;# 
  1617  038D                     	;# 
  1618  038E                     	;# 
  1619  0391                     	;# 
  1620  0392                     	;# 
  1621  0393                     	;# 
  1622  0394                     	;# 
  1623  0395                     	;# 
  1624  0396                     	;# 
  1625  0397                     	;# 
  1626  0398                     	;# 
  1627  0399                     	;# 
  1628  039A                     	;# 
  1629  039C                     	;# 
  1630  039D                     	;# 
  1631  039E                     	;# 
  1632  039F                     	;# 
  1633  0411                     	;# 
  1634  0411                     	;# 
  1635  0412                     	;# 
  1636  0413                     	;# 
  1637  0414                     	;# 
  1638  0415                     	;# 
  1639  0416                     	;# 
  1640  0417                     	;# 
  1641  0418                     	;# 
  1642  0418                     	;# 
  1643  0419                     	;# 
  1644  041A                     	;# 
  1645  041B                     	;# 
  1646  041C                     	;# 
  1647  041D                     	;# 
  1648  041E                     	;# 
  1649  041F                     	;# 
  1650  0498                     	;# 
  1651  0498                     	;# 
  1652  0499                     	;# 
  1653  049A                     	;# 
  1654  049B                     	;# 
  1655  049B                     	;# 
  1656  049C                     	;# 
  1657  049D                     	;# 
  1658  049E                     	;# 
  1659  049F                     	;# 
  1660  0617                     	;# 
  1661  0618                     	;# 
  1662  0619                     	;# 
  1663  0619                     	;# 
  1664  061A                     	;# 
  1665  061B                     	;# 
  1666  061C                     	;# 
  1667  061C                     	;# 
  1668  061F                     	;# 
  1669  0691                     	;# 
  1670  0692                     	;# 
  1671  0693                     	;# 
  1672  0694                     	;# 
  1673  0695                     	;# 
  1674  0696                     	;# 
  1675  0697                     	;# 
  1676  0698                     	;# 
  1677  0699                     	;# 
  1678  0711                     	;# 
  1679  0712                     	;# 
  1680  0713                     	;# 
  1681  0714                     	;# 
  1682  0715                     	;# 
  1683  0716                     	;# 
  1684  0717                     	;# 
  1685  0718                     	;# 
  1686  0719                     	;# 
  1687  0891                     	;# 
  1688  0891                     	;# 
  1689  0891                     	;# 
  1690  0891                     	;# 
  1691  0891                     	;# 
  1692  0891                     	;# 
  1693  0892                     	;# 
  1694  0892                     	;# 
  1695  0892                     	;# 
  1696  0893                     	;# 
  1697  0893                     	;# 
  1698  0893                     	;# 
  1699  0893                     	;# 
  1700  0893                     	;# 
  1701  0893                     	;# 
  1702  0894                     	;# 
  1703  0894                     	;# 
  1704  0894                     	;# 
  1705  0895                     	;# 
  1706  0895                     	;# 
  1707  0895                     	;# 
  1708  0896                     	;# 
  1709  0896                     	;# 
  1710  0896                     	;# 
  1711  089B                     	;# 
  1712  0911                     	;# 
  1713  0912                     	;# 
  1714  0913                     	;# 
  1715  0914                     	;# 
  1716  0915                     	;# 
  1717  0916                     	;# 
  1718  0918                     	;# 
  1719  0919                     	;# 
  1720  091A                     	;# 
  1721  091B                     	;# 
  1722  091C                     	;# 
  1723  091D                     	;# 
  1724  091E                     	;# 
  1725  091F                     	;# 
  1726  0E0F                     	;# 
  1727  0E10                     	;# 
  1728  0E11                     	;# 
  1729  0E12                     	;# 
  1730  0E13                     	;# 
  1731  0E14                     	;# 
  1732  0E15                     	;# 
  1733  0E16                     	;# 
  1734  0E17                     	;# 
  1735  0E18                     	;# 
  1736  0E19                     	;# 
  1737  0E1A                     	;# 
  1738  0E1B                     	;# 
  1739  0E1C                     	;# 
  1740  0E1D                     	;# 
  1741  0E1E                     	;# 
  1742  0E1F                     	;# 
  1743  0E20                     	;# 
  1744  0E21                     	;# 
  1745  0E22                     	;# 
  1746  0E24                     	;# 
  1747  0E25                     	;# 
  1748  0E28                     	;# 
  1749  0E29                     	;# 
  1750  0E2A                     	;# 
  1751  0E2B                     	;# 
  1752  0E2C                     	;# 
  1753  0E2D                     	;# 
  1754  0E2E                     	;# 
  1755  0E2F                     	;# 
  1756  0E90                     	;# 
  1757  0E91                     	;# 
  1758  0E92                     	;# 
  1759  0E94                     	;# 
  1760  0E95                     	;# 
  1761  0E9C                     	;# 
  1762  0E9D                     	;# 
  1763  0E9E                     	;# 
  1764  0E9F                     	;# 
  1765  0EA0                     	;# 
  1766  0EA1                     	;# 
  1767  0EA2                     	;# 
  1768  0EA3                     	;# 
  1769  0EA4                     	;# 
  1770  0EA5                     	;# 
  1771  0EA6                     	;# 
  1772  0EA7                     	;# 
  1773  0F0F                     	;# 
  1774  0F10                     	;# 
  1775  0F11                     	;# 
  1776  0F12                     	;# 
  1777  0F13                     	;# 
  1778  0F14                     	;# 
  1779  0F15                     	;# 
  1780  0F16                     	;# 
  1781  0F17                     	;# 
  1782  0F18                     	;# 
  1783  0F19                     	;# 
  1784  0F1A                     	;# 
  1785  0F1B                     	;# 
  1786  0F1C                     	;# 
  1787  0F1D                     	;# 
  1788  0F1E                     	;# 
  1789  0F1F                     	;# 
  1790  0F20                     	;# 
  1791  0F21                     	;# 
  1792  0F22                     	;# 
  1793  0F23                     	;# 
  1794  0F24                     	;# 
  1795  0F25                     	;# 
  1796  0F26                     	;# 
  1797  0F27                     	;# 
  1798  0F28                     	;# 
  1799  0F29                     	;# 
  1800  0F2A                     	;# 
  1801  0F2B                     	;# 
  1802  0F2C                     	;# 
  1803  0F2D                     	;# 
  1804  0F2E                     	;# 
  1805  0F2F                     	;# 
  1806  0F30                     	;# 
  1807  0F31                     	;# 
  1808  0F32                     	;# 
  1809  0F33                     	;# 
  1810  0F34                     	;# 
  1811  0F35                     	;# 
  1812  0F36                     	;# 
  1813  0F37                     	;# 
  1814  0FE4                     	;# 
  1815  0FE5                     	;# 
  1816  0FE6                     	;# 
  1817  0FE7                     	;# 
  1818  0FE8                     	;# 
  1819  0FE9                     	;# 
  1820  0FEA                     	;# 
  1821  0FEB                     	;# 
  1822  0FED                     	;# 
  1823  0FEE                     	;# 
  1824  0FEF                     	;# 
  1825  0000                     	;# 
  1826  0001                     	;# 
  1827  0002                     	;# 
  1828  0003                     	;# 
  1829  0004                     	;# 
  1830  0005                     	;# 
  1831  0006                     	;# 
  1832  0007                     	;# 
  1833  0008                     	;# 
  1834  0009                     	;# 
  1835  000A                     	;# 
  1836  000B                     	;# 
  1837  000C                     	;# 
  1838  000D                     	;# 
  1839  000E                     	;# 
  1840  0010                     	;# 
  1841  0011                     	;# 
  1842  0012                     	;# 
  1843  0013                     	;# 
  1844  0014                     	;# 
  1845  0015                     	;# 
  1846  0015                     	;# 
  1847  0016                     	;# 
  1848  0016                     	;# 
  1849  0017                     	;# 
  1850  0018                     	;# 
  1851  0019                     	;# 
  1852  0019                     	;# 
  1853  001A                     	;# 
  1854  001B                     	;# 
  1855  001C                     	;# 
  1856  001D                     	;# 
  1857  001E                     	;# 
  1858  001F                     	;# 
  1859  008C                     	;# 
  1860  008D                     	;# 
  1861  008E                     	;# 
  1862  0090                     	;# 
  1863  0091                     	;# 
  1864  0092                     	;# 
  1865  0093                     	;# 
  1866  0094                     	;# 
  1867  0097                     	;# 
  1868  009B                     	;# 
  1869  009B                     	;# 
  1870  009C                     	;# 
  1871  009D                     	;# 
  1872  009E                     	;# 
  1873  009F                     	;# 
  1874  010C                     	;# 
  1875  010D                     	;# 
  1876  010E                     	;# 
  1877  0111                     	;# 
  1878  0112                     	;# 
  1879  0113                     	;# 
  1880  0114                     	;# 
  1881  0115                     	;# 
  1882  0116                     	;# 
  1883  0117                     	;# 
  1884  0118                     	;# 
  1885  0119                     	;# 
  1886  018C                     	;# 
  1887  018D                     	;# 
  1888  018E                     	;# 
  1889  0197                     	;# 
  1890  0199                     	;# 
  1891  0199                     	;# 
  1892  0199                     	;# 
  1893  019A                     	;# 
  1894  019A                     	;# 
  1895  019A                     	;# 
  1896  019B                     	;# 
  1897  019B                     	;# 
  1898  019B                     	;# 
  1899  019B                     	;# 
  1900  019B                     	;# 
  1901  019C                     	;# 
  1902  019C                     	;# 
  1903  019C                     	;# 
  1904  019D                     	;# 
  1905  019D                     	;# 
  1906  019D                     	;# 
  1907  019E                     	;# 
  1908  019E                     	;# 
  1909  019E                     	;# 
  1910  019F                     	;# 
  1911  019F                     	;# 
  1912  019F                     	;# 
  1913  019F                     	;# 
  1914  019F                     	;# 
  1915  020C                     	;# 
  1916  020D                     	;# 
  1917  020E                     	;# 
  1918  0211                     	;# 
  1919  0211                     	;# 
  1920  0212                     	;# 
  1921  0212                     	;# 
  1922  0213                     	;# 
  1923  0213                     	;# 
  1924  0214                     	;# 
  1925  0214                     	;# 
  1926  0215                     	;# 
  1927  0215                     	;# 
  1928  0215                     	;# 
  1929  0215                     	;# 
  1930  0216                     	;# 
  1931  0216                     	;# 
  1932  0217                     	;# 
  1933  0217                     	;# 
  1934  0219                     	;# 
  1935  021A                     	;# 
  1936  021B                     	;# 
  1937  021C                     	;# 
  1938  021D                     	;# 
  1939  021D                     	;# 
  1940  021E                     	;# 
  1941  021F                     	;# 
  1942  028C                     	;# 
  1943  028D                     	;# 
  1944  028E                     	;# 
  1945  0291                     	;# 
  1946  0291                     	;# 
  1947  0292                     	;# 
  1948  0293                     	;# 
  1949  0294                     	;# 
  1950  0295                     	;# 
  1951  0295                     	;# 
  1952  0296                     	;# 
  1953  0297                     	;# 
  1954  0298                     	;# 
  1955  029F                     	;# 
  1956  030C                     	;# 
  1957  030D                     	;# 
  1958  030E                     	;# 
  1959  0311                     	;# 
  1960  0311                     	;# 
  1961  0312                     	;# 
  1962  0313                     	;# 
  1963  0314                     	;# 
  1964  0315                     	;# 
  1965  0315                     	;# 
  1966  0316                     	;# 
  1967  0317                     	;# 
  1968  0318                     	;# 
  1969  038C                     	;# 
  1970  038D                     	;# 
  1971  038E                     	;# 
  1972  0391                     	;# 
  1973  0392                     	;# 
  1974  0393                     	;# 
  1975  0394                     	;# 
  1976  0395                     	;# 
  1977  0396                     	;# 
  1978  0397                     	;# 
  1979  0398                     	;# 
  1980  0399                     	;# 
  1981  039A                     	;# 
  1982  039C                     	;# 
  1983  039D                     	;# 
  1984  039E                     	;# 
  1985  039F                     	;# 
  1986  0411                     	;# 
  1987  0411                     	;# 
  1988  0412                     	;# 
  1989  0413                     	;# 
  1990  0414                     	;# 
  1991  0415                     	;# 
  1992  0416                     	;# 
  1993  0417                     	;# 
  1994  0418                     	;# 
  1995  0418                     	;# 
  1996  0419                     	;# 
  1997  041A                     	;# 
  1998  041B                     	;# 
  1999  041C                     	;# 
  2000  041D                     	;# 
  2001  041E                     	;# 
  2002  041F                     	;# 
  2003  0498                     	;# 
  2004  0498                     	;# 
  2005  0499                     	;# 
  2006  049A                     	;# 
  2007  049B                     	;# 
  2008  049B                     	;# 
  2009  049C                     	;# 
  2010  049D                     	;# 
  2011  049E                     	;# 
  2012  049F                     	;# 
  2013  0617                     	;# 
  2014  0618                     	;# 
  2015  0619                     	;# 
  2016  0619                     	;# 
  2017  061A                     	;# 
  2018  061B                     	;# 
  2019  061C                     	;# 
  2020  061C                     	;# 
  2021  061F                     	;# 
  2022  0691                     	;# 
  2023  0692                     	;# 
  2024  0693                     	;# 
  2025  0694                     	;# 
  2026  0695                     	;# 
  2027  0696                     	;# 
  2028  0697                     	;# 
  2029  0698                     	;# 
  2030  0699                     	;# 
  2031  0711                     	;# 
  2032  0712                     	;# 
  2033  0713                     	;# 
  2034  0714                     	;# 
  2035  0715                     	;# 
  2036  0716                     	;# 
  2037  0717                     	;# 
  2038  0718                     	;# 
  2039  0719                     	;# 
  2040  0891                     	;# 
  2041  0891                     	;# 
  2042  0891                     	;# 
  2043  0891                     	;# 
  2044  0891                     	;# 
  2045  0891                     	;# 
  2046  0892                     	;# 
  2047  0892                     	;# 
  2048  0892                     	;# 
  2049  0893                     	;# 
  2050  0893                     	;# 
  2051  0893                     	;# 
  2052  0893                     	;# 
  2053  0893                     	;# 
  2054  0893                     	;# 
  2055  0894                     	;# 
  2056  0894                     	;# 
  2057  0894                     	;# 
  2058  0895                     	;# 
  2059  0895                     	;# 
  2060  0895                     	;# 
  2061  0896                     	;# 
  2062  0896                     	;# 
  2063  0896                     	;# 
  2064  089B                     	;# 
  2065  0911                     	;# 
  2066  0912                     	;# 
  2067  0913                     	;# 
  2068  0914                     	;# 
  2069  0915                     	;# 
  2070  0916                     	;# 
  2071  0918                     	;# 
  2072  0919                     	;# 
  2073  091A                     	;# 
  2074  091B                     	;# 
  2075  091C                     	;# 
  2076  091D                     	;# 
  2077  091E                     	;# 
  2078  091F                     	;# 
  2079  0E0F                     	;# 
  2080  0E10                     	;# 
  2081  0E11                     	;# 
  2082  0E12                     	;# 
  2083  0E13                     	;# 
  2084  0E14                     	;# 
  2085  0E15                     	;# 
  2086  0E16                     	;# 
  2087  0E17                     	;# 
  2088  0E18                     	;# 
  2089  0E19                     	;# 
  2090  0E1A                     	;# 
  2091  0E1B                     	;# 
  2092  0E1C                     	;# 
  2093  0E1D                     	;# 
  2094  0E1E                     	;# 
  2095  0E1F                     	;# 
  2096  0E20                     	;# 
  2097  0E21                     	;# 
  2098  0E22                     	;# 
  2099  0E24                     	;# 
  2100  0E25                     	;# 
  2101  0E28                     	;# 
  2102  0E29                     	;# 
  2103  0E2A                     	;# 
  2104  0E2B                     	;# 
  2105  0E2C                     	;# 
  2106  0E2D                     	;# 
  2107  0E2E                     	;# 
  2108  0E2F                     	;# 
  2109  0E90                     	;# 
  2110  0E91                     	;# 
  2111  0E92                     	;# 
  2112  0E94                     	;# 
  2113  0E95                     	;# 
  2114  0E9C                     	;# 
  2115  0E9D                     	;# 
  2116  0E9E                     	;# 
  2117  0E9F                     	;# 
  2118  0EA0                     	;# 
  2119  0EA1                     	;# 
  2120  0EA2                     	;# 
  2121  0EA3                     	;# 
  2122  0EA4                     	;# 
  2123  0EA5                     	;# 
  2124  0EA6                     	;# 
  2125  0EA7                     	;# 
  2126  0F0F                     	;# 
  2127  0F10                     	;# 
  2128  0F11                     	;# 
  2129  0F12                     	;# 
  2130  0F13                     	;# 
  2131  0F14                     	;# 
  2132  0F15                     	;# 
  2133  0F16                     	;# 
  2134  0F17                     	;# 
  2135  0F18                     	;# 
  2136  0F19                     	;# 
  2137  0F1A                     	;# 
  2138  0F1B                     	;# 
  2139  0F1C                     	;# 
  2140  0F1D                     	;# 
  2141  0F1E                     	;# 
  2142  0F1F                     	;# 
  2143  0F20                     	;# 
  2144  0F21                     	;# 
  2145  0F22                     	;# 
  2146  0F23                     	;# 
  2147  0F24                     	;# 
  2148  0F25                     	;# 
  2149  0F26                     	;# 
  2150  0F27                     	;# 
  2151  0F28                     	;# 
  2152  0F29                     	;# 
  2153  0F2A                     	;# 
  2154  0F2B                     	;# 
  2155  0F2C                     	;# 
  2156  0F2D                     	;# 
  2157  0F2E                     	;# 
  2158  0F2F                     	;# 
  2159  0F30                     	;# 
  2160  0F31                     	;# 
  2161  0F32                     	;# 
  2162  0F33                     	;# 
  2163  0F34                     	;# 
  2164  0F35                     	;# 
  2165  0F36                     	;# 
  2166  0F37                     	;# 
  2167  0FE4                     	;# 
  2168  0FE5                     	;# 
  2169  0FE6                     	;# 
  2170  0FE7                     	;# 
  2171  0FE8                     	;# 
  2172  0FE9                     	;# 
  2173  0FEA                     	;# 
  2174  0FEB                     	;# 
  2175  0FED                     	;# 
  2176  0FEE                     	;# 
  2177  0FEF                     	;# 
  2178  0000                     	;# 
  2179  0001                     	;# 
  2180  0002                     	;# 
  2181  0003                     	;# 
  2182  0004                     	;# 
  2183  0005                     	;# 
  2184  0006                     	;# 
  2185  0007                     	;# 
  2186  0008                     	;# 
  2187  0009                     	;# 
  2188  000A                     	;# 
  2189  000B                     	;# 
  2190  000C                     	;# 
  2191  000D                     	;# 
  2192  000E                     	;# 
  2193  0010                     	;# 
  2194  0011                     	;# 
  2195  0012                     	;# 
  2196  0013                     	;# 
  2197  0014                     	;# 
  2198  0015                     	;# 
  2199  0015                     	;# 
  2200  0016                     	;# 
  2201  0016                     	;# 
  2202  0017                     	;# 
  2203  0018                     	;# 
  2204  0019                     	;# 
  2205  0019                     	;# 
  2206  001A                     	;# 
  2207  001B                     	;# 
  2208  001C                     	;# 
  2209  001D                     	;# 
  2210  001E                     	;# 
  2211  001F                     	;# 
  2212  008C                     	;# 
  2213  008D                     	;# 
  2214  008E                     	;# 
  2215  0090                     	;# 
  2216  0091                     	;# 
  2217  0092                     	;# 
  2218  0093                     	;# 
  2219  0094                     	;# 
  2220  0097                     	;# 
  2221  009B                     	;# 
  2222  009B                     	;# 
  2223  009C                     	;# 
  2224  009D                     	;# 
  2225  009E                     	;# 
  2226  009F                     	;# 
  2227  010C                     	;# 
  2228  010D                     	;# 
  2229  010E                     	;# 
  2230  0111                     	;# 
  2231  0112                     	;# 
  2232  0113                     	;# 
  2233  0114                     	;# 
  2234  0115                     	;# 
  2235  0116                     	;# 
  2236  0117                     	;# 
  2237  0118                     	;# 
  2238  0119                     	;# 
  2239  018C                     	;# 
  2240  018D                     	;# 
  2241  018E                     	;# 
  2242  0197                     	;# 
  2243  0199                     	;# 
  2244  0199                     	;# 
  2245  0199                     	;# 
  2246  019A                     	;# 
  2247  019A                     	;# 
  2248  019A                     	;# 
  2249  019B                     	;# 
  2250  019B                     	;# 
  2251  019B                     	;# 
  2252  019B                     	;# 
  2253  019B                     	;# 
  2254  019C                     	;# 
  2255  019C                     	;# 
  2256  019C                     	;# 
  2257  019D                     	;# 
  2258  019D                     	;# 
  2259  019D                     	;# 
  2260  019E                     	;# 
  2261  019E                     	;# 
  2262  019E                     	;# 
  2263  019F                     	;# 
  2264  019F                     	;# 
  2265  019F                     	;# 
  2266  019F                     	;# 
  2267  019F                     	;# 
  2268  020C                     	;# 
  2269  020D                     	;# 
  2270  020E                     	;# 
  2271  0211                     	;# 
  2272  0211                     	;# 
  2273  0212                     	;# 
  2274  0212                     	;# 
  2275  0213                     	;# 
  2276  0213                     	;# 
  2277  0214                     	;# 
  2278  0214                     	;# 
  2279  0215                     	;# 
  2280  0215                     	;# 
  2281  0215                     	;# 
  2282  0215                     	;# 
  2283  0216                     	;# 
  2284  0216                     	;# 
  2285  0217                     	;# 
  2286  0217                     	;# 
  2287  0219                     	;# 
  2288  021A                     	;# 
  2289  021B                     	;# 
  2290  021C                     	;# 
  2291  021D                     	;# 
  2292  021D                     	;# 
  2293  021E                     	;# 
  2294  021F                     	;# 
  2295  028C                     	;# 
  2296  028D                     	;# 
  2297  028E                     	;# 
  2298  0291                     	;# 
  2299  0291                     	;# 
  2300  0292                     	;# 
  2301  0293                     	;# 
  2302  0294                     	;# 
  2303  0295                     	;# 
  2304  0295                     	;# 
  2305  0296                     	;# 
  2306  0297                     	;# 
  2307  0298                     	;# 
  2308  029F                     	;# 
  2309  030C                     	;# 
  2310  030D                     	;# 
  2311  030E                     	;# 
  2312  0311                     	;# 
  2313  0311                     	;# 
  2314  0312                     	;# 
  2315  0313                     	;# 
  2316  0314                     	;# 
  2317  0315                     	;# 
  2318  0315                     	;# 
  2319  0316                     	;# 
  2320  0317                     	;# 
  2321  0318                     	;# 
  2322  038C                     	;# 
  2323  038D                     	;# 
  2324  038E                     	;# 
  2325  0391                     	;# 
  2326  0392                     	;# 
  2327  0393                     	;# 
  2328  0394                     	;# 
  2329  0395                     	;# 
  2330  0396                     	;# 
  2331  0397                     	;# 
  2332  0398                     	;# 
  2333  0399                     	;# 
  2334  039A                     	;# 
  2335  039C                     	;# 
  2336  039D                     	;# 
  2337  039E                     	;# 
  2338  039F                     	;# 
  2339  0411                     	;# 
  2340  0411                     	;# 
  2341  0412                     	;# 
  2342  0413                     	;# 
  2343  0414                     	;# 
  2344  0415                     	;# 
  2345  0416                     	;# 
  2346  0417                     	;# 
  2347  0418                     	;# 
  2348  0418                     	;# 
  2349  0419                     	;# 
  2350  041A                     	;# 
  2351  041B                     	;# 
  2352  041C                     	;# 
  2353  041D                     	;# 
  2354  041E                     	;# 
  2355  041F                     	;# 
  2356  0498                     	;# 
  2357  0498                     	;# 
  2358  0499                     	;# 
  2359  049A                     	;# 
  2360  049B                     	;# 
  2361  049B                     	;# 
  2362  049C                     	;# 
  2363  049D                     	;# 
  2364  049E                     	;# 
  2365  049F                     	;# 
  2366  0617                     	;# 
  2367  0618                     	;# 
  2368  0619                     	;# 
  2369  0619                     	;# 
  2370  061A                     	;# 
  2371  061B                     	;# 
  2372  061C                     	;# 
  2373  061C                     	;# 
  2374  061F                     	;# 
  2375  0691                     	;# 
  2376  0692                     	;# 
  2377  0693                     	;# 
  2378  0694                     	;# 
  2379  0695                     	;# 
  2380  0696                     	;# 
  2381  0697                     	;# 
  2382  0698                     	;# 
  2383  0699                     	;# 
  2384  0711                     	;# 
  2385  0712                     	;# 
  2386  0713                     	;# 
  2387  0714                     	;# 
  2388  0715                     	;# 
  2389  0716                     	;# 
  2390  0717                     	;# 
  2391  0718                     	;# 
  2392  0719                     	;# 
  2393  0891                     	;# 
  2394  0891                     	;# 
  2395  0891                     	;# 
  2396  0891                     	;# 
  2397  0891                     	;# 
  2398  0891                     	;# 
  2399  0892                     	;# 
  2400  0892                     	;# 
  2401  0892                     	;# 
  2402  0893                     	;# 
  2403  0893                     	;# 
  2404  0893                     	;# 
  2405  0893                     	;# 
  2406  0893                     	;# 
  2407  0893                     	;# 
  2408  0894                     	;# 
  2409  0894                     	;# 
  2410  0894                     	;# 
  2411  0895                     	;# 
  2412  0895                     	;# 
  2413  0895                     	;# 
  2414  0896                     	;# 
  2415  0896                     	;# 
  2416  0896                     	;# 
  2417  089B                     	;# 
  2418  0911                     	;# 
  2419  0912                     	;# 
  2420  0913                     	;# 
  2421  0914                     	;# 
  2422  0915                     	;# 
  2423  0916                     	;# 
  2424  0918                     	;# 
  2425  0919                     	;# 
  2426  091A                     	;# 
  2427  091B                     	;# 
  2428  091C                     	;# 
  2429  091D                     	;# 
  2430  091E                     	;# 
  2431  091F                     	;# 
  2432  0E0F                     	;# 
  2433  0E10                     	;# 
  2434  0E11                     	;# 
  2435  0E12                     	;# 
  2436  0E13                     	;# 
  2437  0E14                     	;# 
  2438  0E15                     	;# 
  2439  0E16                     	;# 
  2440  0E17                     	;# 
  2441  0E18                     	;# 
  2442  0E19                     	;# 
  2443  0E1A                     	;# 
  2444  0E1B                     	;# 
  2445  0E1C                     	;# 
  2446  0E1D                     	;# 
  2447  0E1E                     	;# 
  2448  0E1F                     	;# 
  2449  0E20                     	;# 
  2450  0E21                     	;# 
  2451  0E22                     	;# 
  2452  0E24                     	;# 
  2453  0E25                     	;# 
  2454  0E28                     	;# 
  2455  0E29                     	;# 
  2456  0E2A                     	;# 
  2457  0E2B                     	;# 
  2458  0E2C                     	;# 
  2459  0E2D                     	;# 
  2460  0E2E                     	;# 
  2461  0E2F                     	;# 
  2462  0E90                     	;# 
  2463  0E91                     	;# 
  2464  0E92                     	;# 
  2465  0E94                     	;# 
  2466  0E95                     	;# 
  2467  0E9C                     	;# 
  2468  0E9D                     	;# 
  2469  0E9E                     	;# 
  2470  0E9F                     	;# 
  2471  0EA0                     	;# 
  2472  0EA1                     	;# 
  2473  0EA2                     	;# 
  2474  0EA3                     	;# 
  2475  0EA4                     	;# 
  2476  0EA5                     	;# 
  2477  0EA6                     	;# 
  2478  0EA7                     	;# 
  2479  0F0F                     	;# 
  2480  0F10                     	;# 
  2481  0F11                     	;# 
  2482  0F12                     	;# 
  2483  0F13                     	;# 
  2484  0F14                     	;# 
  2485  0F15                     	;# 
  2486  0F16                     	;# 
  2487  0F17                     	;# 
  2488  0F18                     	;# 
  2489  0F19                     	;# 
  2490  0F1A                     	;# 
  2491  0F1B                     	;# 
  2492  0F1C                     	;# 
  2493  0F1D                     	;# 
  2494  0F1E                     	;# 
  2495  0F1F                     	;# 
  2496  0F20                     	;# 
  2497  0F21                     	;# 
  2498  0F22                     	;# 
  2499  0F23                     	;# 
  2500  0F24                     	;# 
  2501  0F25                     	;# 
  2502  0F26                     	;# 
  2503  0F27                     	;# 
  2504  0F28                     	;# 
  2505  0F29                     	;# 
  2506  0F2A                     	;# 
  2507  0F2B                     	;# 
  2508  0F2C                     	;# 
  2509  0F2D                     	;# 
  2510  0F2E                     	;# 
  2511  0F2F                     	;# 
  2512  0F30                     	;# 
  2513  0F31                     	;# 
  2514  0F32                     	;# 
  2515  0F33                     	;# 
  2516  0F34                     	;# 
  2517  0F35                     	;# 
  2518  0F36                     	;# 
  2519  0F37                     	;# 
  2520  0FE4                     	;# 
  2521  0FE5                     	;# 
  2522  0FE6                     	;# 
  2523  0FE7                     	;# 
  2524  0FE8                     	;# 
  2525  0FE9                     	;# 
  2526  0FEA                     	;# 
  2527  0FEB                     	;# 
  2528  0FED                     	;# 
  2529  0FEE                     	;# 
  2530  0FEF                     	;# 
  2531  0000                     	;# 
  2532  0001                     	;# 
  2533  0002                     	;# 
  2534  0003                     	;# 
  2535  0004                     	;# 
  2536  0005                     	;# 
  2537  0006                     	;# 
  2538  0007                     	;# 
  2539  0008                     	;# 
  2540  0009                     	;# 
  2541  000A                     	;# 
  2542  000B                     	;# 
  2543  000C                     	;# 
  2544  000D                     	;# 
  2545  000E                     	;# 
  2546  0010                     	;# 
  2547  0011                     	;# 
  2548  0012                     	;# 
  2549  0013                     	;# 
  2550  0014                     	;# 
  2551  0015                     	;# 
  2552  0015                     	;# 
  2553  0016                     	;# 
  2554  0016                     	;# 
  2555  0017                     	;# 
  2556  0018                     	;# 
  2557  0019                     	;# 
  2558  0019                     	;# 
  2559  001A                     	;# 
  2560  001B                     	;# 
  2561  001C                     	;# 
  2562  001D                     	;# 
  2563  001E                     	;# 
  2564  001F                     	;# 
  2565  008C                     	;# 
  2566  008D                     	;# 
  2567  008E                     	;# 
  2568  0090                     	;# 
  2569  0091                     	;# 
  2570  0092                     	;# 
  2571  0093                     	;# 
  2572  0094                     	;# 
  2573  0097                     	;# 
  2574  009B                     	;# 
  2575  009B                     	;# 
  2576  009C                     	;# 
  2577  009D                     	;# 
  2578  009E                     	;# 
  2579  009F                     	;# 
  2580  010C                     	;# 
  2581  010D                     	;# 
  2582  010E                     	;# 
  2583  0111                     	;# 
  2584  0112                     	;# 
  2585  0113                     	;# 
  2586  0114                     	;# 
  2587  0115                     	;# 
  2588  0116                     	;# 
  2589  0117                     	;# 
  2590  0118                     	;# 
  2591  0119                     	;# 
  2592  018C                     	;# 
  2593  018D                     	;# 
  2594  018E                     	;# 
  2595  0197                     	;# 
  2596  0199                     	;# 
  2597  0199                     	;# 
  2598  0199                     	;# 
  2599  019A                     	;# 
  2600  019A                     	;# 
  2601  019A                     	;# 
  2602  019B                     	;# 
  2603  019B                     	;# 
  2604  019B                     	;# 
  2605  019B                     	;# 
  2606  019B                     	;# 
  2607  019C                     	;# 
  2608  019C                     	;# 
  2609  019C                     	;# 
  2610  019D                     	;# 
  2611  019D                     	;# 
  2612  019D                     	;# 
  2613  019E                     	;# 
  2614  019E                     	;# 
  2615  019E                     	;# 
  2616  019F                     	;# 
  2617  019F                     	;# 
  2618  019F                     	;# 
  2619  019F                     	;# 
  2620  019F                     	;# 
  2621  020C                     	;# 
  2622  020D                     	;# 
  2623  020E                     	;# 
  2624  0211                     	;# 
  2625  0211                     	;# 
  2626  0212                     	;# 
  2627  0212                     	;# 
  2628  0213                     	;# 
  2629  0213                     	;# 
  2630  0214                     	;# 
  2631  0214                     	;# 
  2632  0215                     	;# 
  2633  0215                     	;# 
  2634  0215                     	;# 
  2635  0215                     	;# 
  2636  0216                     	;# 
  2637  0216                     	;# 
  2638  0217                     	;# 
  2639  0217                     	;# 
  2640  0219                     	;# 
  2641  021A                     	;# 
  2642  021B                     	;# 
  2643  021C                     	;# 
  2644  021D                     	;# 
  2645  021D                     	;# 
  2646  021E                     	;# 
  2647  021F                     	;# 
  2648  028C                     	;# 
  2649  028D                     	;# 
  2650  028E                     	;# 
  2651  0291                     	;# 
  2652  0291                     	;# 
  2653  0292                     	;# 
  2654  0293                     	;# 
  2655  0294                     	;# 
  2656  0295                     	;# 
  2657  0295                     	;# 
  2658  0296                     	;# 
  2659  0297                     	;# 
  2660  0298                     	;# 
  2661  029F                     	;# 
  2662  030C                     	;# 
  2663  030D                     	;# 
  2664  030E                     	;# 
  2665  0311                     	;# 
  2666  0311                     	;# 
  2667  0312                     	;# 
  2668  0313                     	;# 
  2669  0314                     	;# 
  2670  0315                     	;# 
  2671  0315                     	;# 
  2672  0316                     	;# 
  2673  0317                     	;# 
  2674  0318                     	;# 
  2675  038C                     	;# 
  2676  038D                     	;# 
  2677  038E                     	;# 
  2678  0391                     	;# 
  2679  0392                     	;# 
  2680  0393                     	;# 
  2681  0394                     	;# 
  2682  0395                     	;# 
  2683  0396                     	;# 
  2684  0397                     	;# 
  2685  0398                     	;# 
  2686  0399                     	;# 
  2687  039A                     	;# 
  2688  039C                     	;# 
  2689  039D                     	;# 
  2690  039E                     	;# 
  2691  039F                     	;# 
  2692  0411                     	;# 
  2693  0411                     	;# 
  2694  0412                     	;# 
  2695  0413                     	;# 
  2696  0414                     	;# 
  2697  0415                     	;# 
  2698  0416                     	;# 
  2699  0417                     	;# 
  2700  0418                     	;# 
  2701  0418                     	;# 
  2702  0419                     	;# 
  2703  041A                     	;# 
  2704  041B                     	;# 
  2705  041C                     	;# 
  2706  041D                     	;# 
  2707  041E                     	;# 
  2708  041F                     	;# 
  2709  0498                     	;# 
  2710  0498                     	;# 
  2711  0499                     	;# 
  2712  049A                     	;# 
  2713  049B                     	;# 
  2714  049B                     	;# 
  2715  049C                     	;# 
  2716  049D                     	;# 
  2717  049E                     	;# 
  2718  049F                     	;# 
  2719  0617                     	;# 
  2720  0618                     	;# 
  2721  0619                     	;# 
  2722  0619                     	;# 
  2723  061A                     	;# 
  2724  061B                     	;# 
  2725  061C                     	;# 
  2726  061C                     	;# 
  2727  061F                     	;# 
  2728  0691                     	;# 
  2729  0692                     	;# 
  2730  0693                     	;# 
  2731  0694                     	;# 
  2732  0695                     	;# 
  2733  0696                     	;# 
  2734  0697                     	;# 
  2735  0698                     	;# 
  2736  0699                     	;# 
  2737  0711                     	;# 
  2738  0712                     	;# 
  2739  0713                     	;# 
  2740  0714                     	;# 
  2741  0715                     	;# 
  2742  0716                     	;# 
  2743  0717                     	;# 
  2744  0718                     	;# 
  2745  0719                     	;# 
  2746  0891                     	;# 
  2747  0891                     	;# 
  2748  0891                     	;# 
  2749  0891                     	;# 
  2750  0891                     	;# 
  2751  0891                     	;# 
  2752  0892                     	;# 
  2753  0892                     	;# 
  2754  0892                     	;# 
  2755  0893                     	;# 
  2756  0893                     	;# 
  2757  0893                     	;# 
  2758  0893                     	;# 
  2759  0893                     	;# 
  2760  0893                     	;# 
  2761  0894                     	;# 
  2762  0894                     	;# 
  2763  0894                     	;# 
  2764  0895                     	;# 
  2765  0895                     	;# 
  2766  0895                     	;# 
  2767  0896                     	;# 
  2768  0896                     	;# 
  2769  0896                     	;# 
  2770  089B                     	;# 
  2771  0911                     	;# 
  2772  0912                     	;# 
  2773  0913                     	;# 
  2774  0914                     	;# 
  2775  0915                     	;# 
  2776  0916                     	;# 
  2777  0918                     	;# 
  2778  0919                     	;# 
  2779  091A                     	;# 
  2780  091B                     	;# 
  2781  091C                     	;# 
  2782  091D                     	;# 
  2783  091E                     	;# 
  2784  091F                     	;# 
  2785  0E0F                     	;# 
  2786  0E10                     	;# 
  2787  0E11                     	;# 
  2788  0E12                     	;# 
  2789  0E13                     	;# 
  2790  0E14                     	;# 
  2791  0E15                     	;# 
  2792  0E16                     	;# 
  2793  0E17                     	;# 
  2794  0E18                     	;# 
  2795  0E19                     	;# 
  2796  0E1A                     	;# 
  2797  0E1B                     	;# 
  2798  0E1C                     	;# 
  2799  0E1D                     	;# 
  2800  0E1E                     	;# 
  2801  0E1F                     	;# 
  2802  0E20                     	;# 
  2803  0E21                     	;# 
  2804  0E22                     	;# 
  2805  0E24                     	;# 
  2806  0E25                     	;# 
  2807  0E28                     	;# 
  2808  0E29                     	;# 
  2809  0E2A                     	;# 
  2810  0E2B                     	;# 
  2811  0E2C                     	;# 
  2812  0E2D                     	;# 
  2813  0E2E                     	;# 
  2814  0E2F                     	;# 
  2815  0E90                     	;# 
  2816  0E91                     	;# 
  2817  0E92                     	;# 
  2818  0E94                     	;# 
  2819  0E95                     	;# 
  2820  0E9C                     	;# 
  2821  0E9D                     	;# 
  2822  0E9E                     	;# 
  2823  0E9F                     	;# 
  2824  0EA0                     	;# 
  2825  0EA1                     	;# 
  2826  0EA2                     	;# 
  2827  0EA3                     	;# 
  2828  0EA4                     	;# 
  2829  0EA5                     	;# 
  2830  0EA6                     	;# 
  2831  0EA7                     	;# 
  2832  0F0F                     	;# 
  2833  0F10                     	;# 
  2834  0F11                     	;# 
  2835  0F12                     	;# 
  2836  0F13                     	;# 
  2837  0F14                     	;# 
  2838  0F15                     	;# 
  2839  0F16                     	;# 
  2840  0F17                     	;# 
  2841  0F18                     	;# 
  2842  0F19                     	;# 
  2843  0F1A                     	;# 
  2844  0F1B                     	;# 
  2845  0F1C                     	;# 
  2846  0F1D                     	;# 
  2847  0F1E                     	;# 
  2848  0F1F                     	;# 
  2849  0F20                     	;# 
  2850  0F21                     	;# 
  2851  0F22                     	;# 
  2852  0F23                     	;# 
  2853  0F24                     	;# 
  2854  0F25                     	;# 
  2855  0F26                     	;# 
  2856  0F27                     	;# 
  2857  0F28                     	;# 
  2858  0F29                     	;# 
  2859  0F2A                     	;# 
  2860  0F2B                     	;# 
  2861  0F2C                     	;# 
  2862  0F2D                     	;# 
  2863  0F2E                     	;# 
  2864  0F2F                     	;# 
  2865  0F30                     	;# 
  2866  0F31                     	;# 
  2867  0F32                     	;# 
  2868  0F33                     	;# 
  2869  0F34                     	;# 
  2870  0F35                     	;# 
  2871  0F36                     	;# 
  2872  0F37                     	;# 
  2873  0FE4                     	;# 
  2874  0FE5                     	;# 
  2875  0FE6                     	;# 
  2876  0FE7                     	;# 
  2877  0FE8                     	;# 
  2878  0FE9                     	;# 
  2879  0FEA                     	;# 
  2880  0FEB                     	;# 
  2881  0FED                     	;# 
  2882  0FEE                     	;# 
  2883  0FEF                     	;# 
  2884                           
  2885                           	psect	idataBANK0
  2886  06B7                     __pidataBANK0:	
  2887                           
  2888                           ;initializer for SPI@F6709
  2889  06B7  34FE               	retlw	254
  2890  06B8  344B               	retlw	75
  2891                           
  2892                           ;initializer for SPI@F6706
  2893  06B9  34FE               	retlw	254
  2894  06BA  3442               	retlw	66
  2895                           
  2896                           ;initializer for _event
  2897  06BB  3401               	retlw	1
  2898  001F                     _T2CONbits	set	31
  2899  001F                     _T2CON	set	31
  2900  0011                     _PIR1bits	set	17
  2901  001D                     _TMR2	set	29
  2902  001E                     _PR2	set	30
  2903  009D                     _ADCON0bits	set	157
  2904  009C                     _ADRESH	set	156
  2905  009B                     _ADRESL	set	155
  2906  009F                     _ADACT	set	159
  2907  009E                     _ADCON1	set	158
  2908  009D                     _ADCON0	set	157
  2909  008E                     _TRISC	set	142
  2910  008D                     _TRISB	set	141
  2911  008C                     _TRISA	set	140
  2912  0097                     _WDTCON	set	151
  2913  010E                     _LATC	set	270
  2914  010D                     _LATB	set	269
  2915  010C                     _LATA	set	268
  2916  018C                     _ANSELA	set	396
  2917  018D                     _ANSELB	set	397
  2918  018E                     _ANSELC	set	398
  2919  020E                     _WPUC	set	526
  2920  020C                     _WPUA	set	524
  2921  020D                     _WPUB	set	525
  2922  0214                     _SSP1STATbits	set	532
  2923  0211                     _SSP1BUF	set	529
  2924  0215                     _SSP1CON1bits	set	533
  2925  0212                     _SSP1ADD	set	530
  2926  0215                     _SSP1CON1	set	533
  2927  0214                     _SSP1STAT	set	532
  2928  028E                     _ODCONC	set	654
  2929  028D                     _ODCONB	set	653
  2930  028C                     _ODCONA	set	652
  2931  0293                     _CCP1CONbits	set	659
  2932  029F                     _CCPTMRSbits	set	671
  2933  0291                     _CCPR1L	set	657
  2934  0292                     _CCPR1H	set	658
  2935  0293                     _CCP1CON	set	659
  2936  030E                     _SLRCONC	set	782
  2937  030D                     _SLRCONB	set	781
  2938  030C                     _SLRCONA	set	780
  2939  0916                     _PMD5	set	2326
  2940  0915                     _PMD4	set	2325
  2941  0914                     _PMD3	set	2324
  2942  0913                     _PMD2	set	2323
  2943  0912                     _PMD1	set	2322
  2944  0911                     _PMD0	set	2321
  2945  091E                     _OSCTUNE	set	2334
  2946  091F                     _OSCFRQ	set	2335
  2947  091D                     _OSCEN	set	2333
  2948  091B                     _OSCCON3	set	2331
  2949  0919                     _OSCCON1	set	2329
  2950  0E21                     _SSP1DATPPS	set	3617
  2951  0E20                     _SSP1CLKPPS	set	3616
  2952  0EA7                     _RC7PPS	set	3751
  2953  0E9F                     _RB7PPS	set	3743
  2954                           
  2955                           ; #config settings
  2956  0000                     
  2957                           	psect	cinit
  2958  07E5                     start_initialization:	
  2959  07E5                     __initialization:	
  2960                           
  2961                           ; Initialize objects allocated to BANK0
  2962  07E5  30B7               	movlw	low __pidataBANK0
  2963  07E6  0084               	movwf	4
  2964  07E7  3086               	movlw	(high __pidataBANK0)| (0+128)
  2965  07E8  0085               	movwf	5
  2966  07E9  0012               	moviw fsr0++
  2967  07EA  00A7               	movwf	__pdataBANK0& (0+127)
  2968  07EB  0012               	moviw fsr0++
  2969  07EC  00A8               	movwf	(__pdataBANK0+1)& (0+127)
  2970  07ED  0012               	moviw fsr0++
  2971  07EE  00A9               	movwf	(__pdataBANK0+2)& (0+127)
  2972  07EF  0012               	moviw fsr0++
  2973  07F0  00AA               	movwf	(__pdataBANK0+3)& (0+127)
  2974  07F1  0012               	moviw fsr0++
  2975  07F2  00AB               	movwf	(__pdataBANK0+4)& (0+127)
  2976                           
  2977                           ; Clear objects allocated to COMMON
  2978  07F3  01FB               	clrf	__pbssCOMMON& (0+127)
  2979  07F4  01FC               	clrf	(__pbssCOMMON+1)& (0+127)
  2980  07F5  01FD               	clrf	(__pbssCOMMON+2)& (0+127)
  2981                           
  2982                           ; Clear objects allocated to BANK0
  2983  07F6  01A0               	clrf	__pbssBANK0& (0+127)
  2984  07F7  01A1               	clrf	(__pbssBANK0+1)& (0+127)
  2985  07F8  01A2               	clrf	(__pbssBANK0+2)& (0+127)
  2986  07F9  01A3               	clrf	(__pbssBANK0+3)& (0+127)
  2987  07FA  01A4               	clrf	(__pbssBANK0+4)& (0+127)
  2988  07FB  01A5               	clrf	(__pbssBANK0+5)& (0+127)
  2989  07FC  01A6               	clrf	(__pbssBANK0+6)& (0+127)
  2990  07FD                     end_of_initialization:	
  2991                           ;End of C runtime variable initialization code
  2992                           
  2993  07FD                     __end_of__initialization:	
  2994  07FD  0020               	movlb	0
  2995  07FE  3186  2EC9         	ljmp	_main	;jump to C main() function
  2996                           
  2997                           	psect	bssCOMMON
  2998  007B                     __pbssCOMMON:	
  2999  007B                     _rotateVal:	
  3000  007B                     	ds	1
  3001  007C                     _secondCount:	
  3002  007C                     	ds	1
  3003  007D                     _adcResult:	
  3004  007D                     	ds	1
  3005                           
  3006                           	psect	bssBANK0
  3007  0020                     __pbssBANK0:	
  3008  0020                     _adcResult2:	
  3009  0020                     	ds	2
  3010  0022                     _pause:	
  3011  0022                     	ds	1
  3012  0023                     _state:	
  3013  0023                     	ds	1
  3014  0024                     _button:	
  3015  0024                     	ds	1
  3016  0025                     _switch1:	
  3017  0025                     	ds	1
  3018  0026                     _delayVal:	
  3019  0026                     	ds	1
  3020                           
  3021                           	psect	dataBANK0
  3022  0027                     __pdataBANK0:	
  3023  0027                     SPI@F6709:	
  3024  0027                     	ds	2
  3025  0029                     SPI@F6706:	
  3026  0029                     	ds	2
  3027  002B                     _event:	
  3028  002B                     	ds	1
  3029                           
  3030                           	psect	cstackCOMMON
  3031  0070                     __pcstackCOMMON:	
  3032  0070                     ?_PMD_Initialize:	
  3033  0070                     ??_PMD_Initialize:	
  3034                           ; 1 bytes @ 0x0
  3035                           
  3036  0070                     ?_PIN_MANAGER_Initialize:	
  3037                           ; 1 bytes @ 0x0
  3038                           
  3039  0070                     ??_PIN_MANAGER_Initialize:	
  3040                           ; 1 bytes @ 0x0
  3041                           
  3042  0070                     ?_OSCILLATOR_Initialize:	
  3043                           ; 1 bytes @ 0x0
  3044                           
  3045  0070                     ??_OSCILLATOR_Initialize:	
  3046                           ; 1 bytes @ 0x0
  3047                           
  3048  0070                     ?_WDT_Initialize:	
  3049                           ; 1 bytes @ 0x0
  3050                           
  3051  0070                     ??_WDT_Initialize:	
  3052                           ; 1 bytes @ 0x0
  3053                           
  3054  0070                     ?_ADC_Initialize:	
  3055                           ; 1 bytes @ 0x0
  3056                           
  3057  0070                     ??_ADC_Initialize:	
  3058                           ; 1 bytes @ 0x0
  3059                           
  3060  0070                     ?_SPI:	
  3061                           ; 1 bytes @ 0x0
  3062                           
  3063  0070                     ?_SPI1_Initialize:	
  3064                           ; 1 bytes @ 0x0
  3065                           
  3066  0070                     ??_SPI1_Initialize:	
  3067                           ; 1 bytes @ 0x0
  3068                           
  3069  0070                     ?_SPI1_Exchange8bit:	
  3070                           ; 1 bytes @ 0x0
  3071                           
  3072  0070                     ??_SPI1_Exchange8bit:	
  3073                           ; 1 bytes @ 0x0
  3074                           
  3075  0070                     ?_PWM1_Initialize:	
  3076                           ; 1 bytes @ 0x0
  3077                           
  3078  0070                     ??_PWM1_Initialize:	
  3079                           ; 1 bytes @ 0x0
  3080                           
  3081  0070                     ?_TMR2_Initialize:	
  3082                           ; 1 bytes @ 0x0
  3083                           
  3084  0070                     ??_TMR2_Initialize:	
  3085                           ; 1 bytes @ 0x0
  3086                           
  3087  0070                     ?_SYSTEM_Initialize:	
  3088                           ; 1 bytes @ 0x0
  3089                           
  3090  0070                     ??_SYSTEM_Initialize:	
  3091                           ; 1 bytes @ 0x0
  3092                           
  3093  0070                     ?_main:	
  3094                           ; 1 bytes @ 0x0
  3095                           
  3096  0070                     SPI1_Exchange8bit@data:	
  3097                           ; 1 bytes @ 0x0
  3098                           
  3099                           
  3100                           ; 1 bytes @ 0x0
  3101  0070                     	ds	1
  3102  0071                     ?_SPI1_Exchange8bitBuffer:	
  3103  0071                     SPI1_Exchange8bitBuffer@bufLen:	
  3104                           ; 1 bytes @ 0x1
  3105                           
  3106                           
  3107                           ; 1 bytes @ 0x1
  3108  0071                     	ds	1
  3109  0072                     SPI1_Exchange8bitBuffer@dataOut:	
  3110                           
  3111                           ; 1 bytes @ 0x2
  3112  0072                     	ds	1
  3113  0073                     ??_SPI1_Exchange8bitBuffer:	
  3114                           
  3115                           ; 1 bytes @ 0x3
  3116  0073                     	ds	3
  3117  0076                     SPI1_Exchange8bitBuffer@dataIn:	
  3118                           
  3119                           ; 1 bytes @ 0x6
  3120  0076                     	ds	1
  3121  0077                     SPI1_Exchange8bitBuffer@bytesWritten:	
  3122                           
  3123                           ; 1 bytes @ 0x7
  3124  0077                     	ds	1
  3125  0078                     ??_SPI:	
  3126                           
  3127                           ; 1 bytes @ 0x8
  3128  0078                     	ds	3
  3129  007B                     ??_main:	
  3130                           
  3131                           	psect	cstackBANK0
  3132  002C                     __pcstackBANK0:	
  3133                           ; 1 bytes @ 0xB
  3134                           
  3135  002C                     SPI@myWriteBuffer:	
  3136                           
  3137                           ; 2 bytes @ 0x0
  3138  002C                     	ds	2
  3139  002E                     SPI@myWriteBuffer1:	
  3140                           
  3141                           ; 2 bytes @ 0x2
  3142  002E                     	ds	2
  3143  0030                     SPI@total:	
  3144                           
  3145                           ; 1 bytes @ 0x4
  3146  0030                     	ds	1
  3147                           
  3148                           	psect	maintext
  3149  06C9                     __pmaintext:	
  3150 ;;
  3151 ;;Main: autosize = 0, tempsize = 0, incstack = 0, save=0
  3152 ;;
  3153 ;; *************** function _main *****************
  3154 ;; Defined at:
  3155 ;;		line 80 in file "main.c"
  3156 ;; Parameters:    Size  Location     Type
  3157 ;;		None
  3158 ;; Auto vars:     Size  Location     Type
  3159 ;;		None
  3160 ;; Return value:  Size  Location     Type
  3161 ;;                  1    wreg      void 
  3162 ;; Registers used:
  3163 ;;		wreg, fsr1l, fsr1h, status,2, status,0, pclath, cstack
  3164 ;; Tracked objects:
  3165 ;;		On entry : B1F/0
  3166 ;;		On exit  : 0/0
  3167 ;;		Unchanged: 0/0
  3168 ;; Data sizes:     COMMON   BANK0   BANK1   BANK2   BANK3   BANK4   BANK5   BANK6   BANK7   BANK8   BANK9  BANK10  BANK1
      +1  BANK12
  3169 ;;      Params:         0       0       0       0       0       0       0       0       0       0       0       0       
      +0       0
  3170 ;;      Locals:         0       0       0       0       0       0       0       0       0       0       0       0       
      +0       0
  3171 ;;      Temps:          0       0       0       0       0       0       0       0       0       0       0       0       
      +0       0
  3172 ;;      Totals:         0       0       0       0       0       0       0       0       0       0       0       0       
      +0       0
  3173 ;;Total ram usage:        0 bytes
  3174 ;; Hardware stack levels required when called:    3
  3175 ;; This function calls:
  3176 ;;		_SPI
  3177 ;;		_SYSTEM_Initialize
  3178 ;; This function is called by:
  3179 ;;		Startup code after reset
  3180 ;; This function uses a non-reentrant model
  3181 ;;
  3182                           
  3183                           
  3184                           ;psect for function _main
  3185  06C9                     _main:	
  3186                           
  3187                           ;main.c: 83:     SYSTEM_Initialize();
  3188                           
  3189                           ;incstack = 0
  3190                           ; Regs used in _main: [wreg+fsr1l+fsr1h+status,2+status,0+pclath+cstack]
  3191  06C9  3187  2700  3186   	fcall	_SYSTEM_Initialize
  3192  06CC                     l1200:	
  3193                           
  3194                           ;main.c: 91:         SPI();
  3195  06CC  3187  2794  3186   	fcall	_SPI
  3196  06CF  2ECC               	goto	l1200
  3197  06D0                     __end_of_main:	
  3198                           
  3199                           	psect	text1
  3200  0700                     __ptext1:	
  3201 ;; *************** function _SYSTEM_Initialize *****************
  3202 ;; Defined at:
  3203 ;;		line 50 in file "mcc_generated_files/mcc.c"
  3204 ;; Parameters:    Size  Location     Type
  3205 ;;		None
  3206 ;; Auto vars:     Size  Location     Type
  3207 ;;		None
  3208 ;; Return value:  Size  Location     Type
  3209 ;;                  1    wreg      void 
  3210 ;; Registers used:
  3211 ;;		wreg, status,2, status,0, pclath, cstack
  3212 ;; Tracked objects:
  3213 ;;		On entry : 0/0
  3214 ;;		On exit  : 0/0
  3215 ;;		Unchanged: 0/0
  3216 ;; Data sizes:     COMMON   BANK0   BANK1   BANK2   BANK3   BANK4   BANK5   BANK6   BANK7   BANK8   BANK9  BANK10  BANK1
      +1  BANK12
  3217 ;;      Params:         0       0       0       0       0       0       0       0       0       0       0       0       
      +0       0
  3218 ;;      Locals:         0       0       0       0       0       0       0       0       0       0       0       0       
      +0       0
  3219 ;;      Temps:          0       0       0       0       0       0       0       0       0       0       0       0       
      +0       0
  3220 ;;      Totals:         0       0       0       0       0       0       0       0       0       0       0       0       
      +0       0
  3221 ;;Total ram usage:        0 bytes
  3222 ;; Hardware stack levels used:    1
  3223 ;; Hardware stack levels required when called:    1
  3224 ;; This function calls:
  3225 ;;		_ADC_Initialize
  3226 ;;		_OSCILLATOR_Initialize
  3227 ;;		_PIN_MANAGER_Initialize
  3228 ;;		_PMD_Initialize
  3229 ;;		_PWM1_Initialize
  3230 ;;		_SPI1_Initialize
  3231 ;;		_TMR2_Initialize
  3232 ;;		_WDT_Initialize
  3233 ;; This function is called by:
  3234 ;;		_main
  3235 ;; This function uses a non-reentrant model
  3236 ;;
  3237                           
  3238                           
  3239                           ;psect for function _SYSTEM_Initialize
  3240  0700                     _SYSTEM_Initialize:	
  3241                           
  3242                           ;mcc_generated_files/mcc.c: 53:     PMD_Initialize();
  3243                           
  3244                           ;incstack = 0
  3245                           ; Regs used in _SYSTEM_Initialize: [wreg+status,2+status,0+pclath+cstack]
  3246  0700  3186  26D8  3187   	fcall	_PMD_Initialize
  3247                           
  3248                           ;mcc_generated_files/mcc.c: 54:     PIN_MANAGER_Initialize();
  3249  0703  3187  2718  3187   	fcall	_PIN_MANAGER_Initialize
  3250                           
  3251                           ;mcc_generated_files/mcc.c: 55:     OSCILLATOR_Initialize();
  3252  0706  3186  26D0  3187   	fcall	_OSCILLATOR_Initialize
  3253                           
  3254                           ;mcc_generated_files/mcc.c: 56:     WDT_Initialize();
  3255  0709  3186  26B3  3187   	fcall	_WDT_Initialize
  3256                           
  3257                           ;mcc_generated_files/mcc.c: 57:     SPI1_Initialize();
  3258  070C  3186  26BC  3187   	fcall	_SPI1_Initialize
  3259                           
  3260                           ;mcc_generated_files/mcc.c: 58:     PWM1_Initialize();
  3261  070F  3186  26F4  3187   	fcall	_PWM1_Initialize
  3262                           
  3263                           ;mcc_generated_files/mcc.c: 59:     ADC_Initialize();
  3264  0712  3186  26C2  3187   	fcall	_ADC_Initialize
  3265                           
  3266                           ;mcc_generated_files/mcc.c: 60:     TMR2_Initialize();
  3267  0715  3186  26E0         	fcall	_TMR2_Initialize
  3268  0717  0008               	return
  3269  0718                     __end_of_SYSTEM_Initialize:	
  3270                           
  3271                           	psect	text2
  3272  06B3                     __ptext2:	
  3273 ;; *************** function _WDT_Initialize *****************
  3274 ;; Defined at:
  3275 ;;		line 77 in file "mcc_generated_files/mcc.c"
  3276 ;; Parameters:    Size  Location     Type
  3277 ;;		None
  3278 ;; Auto vars:     Size  Location     Type
  3279 ;;		None
  3280 ;; Return value:  Size  Location     Type
  3281 ;;                  1    wreg      void 
  3282 ;; Registers used:
  3283 ;;		wreg
  3284 ;; Tracked objects:
  3285 ;;		On entry : 0/0
  3286 ;;		On exit  : 0/0
  3287 ;;		Unchanged: 0/0
  3288 ;; Data sizes:     COMMON   BANK0   BANK1   BANK2   BANK3   BANK4   BANK5   BANK6   BANK7   BANK8   BANK9  BANK10  BANK1
      +1  BANK12
  3289 ;;      Params:         0       0       0       0       0       0       0       0       0       0       0       0       
      +0       0
  3290 ;;      Locals:         0       0       0       0       0       0       0       0       0       0       0       0       
      +0       0
  3291 ;;      Temps:          0       0       0       0       0       0       0       0       0       0       0       0       
      +0       0
  3292 ;;      Totals:         0       0       0       0       0       0       0       0       0       0       0       0       
      +0       0
  3293 ;;Total ram usage:        0 bytes
  3294 ;; Hardware stack levels used:    1
  3295 ;; This function calls:
  3296 ;;		Nothing
  3297 ;; This function is called by:
  3298 ;;		_SYSTEM_Initialize
  3299 ;; This function uses a non-reentrant model
  3300 ;;
  3301                           
  3302                           
  3303                           ;psect for function _WDT_Initialize
  3304  06B3                     _WDT_Initialize:	
  3305                           
  3306                           ;mcc_generated_files/mcc.c: 80:     WDTCON = 0x18;
  3307                           
  3308                           ;incstack = 0
  3309                           ; Regs used in _WDT_Initialize: [wreg]
  3310  06B3  3018               	movlw	24
  3311  06B4  0021               	movlb	1	; select bank1
  3312  06B5  0097               	movwf	23	;volatile
  3313  06B6  0008               	return
  3314  06B7                     __end_of_WDT_Initialize:	
  3315                           
  3316                           	psect	text3
  3317  06E0                     __ptext3:	
  3318 ;; *************** function _TMR2_Initialize *****************
  3319 ;; Defined at:
  3320 ;;		line 62 in file "mcc_generated_files/tmr2.c"
  3321 ;; Parameters:    Size  Location     Type
  3322 ;;		None
  3323 ;; Auto vars:     Size  Location     Type
  3324 ;;		None
  3325 ;; Return value:  Size  Location     Type
  3326 ;;                  1    wreg      void 
  3327 ;; Registers used:
  3328 ;;		wreg, status,2
  3329 ;; Tracked objects:
  3330 ;;		On entry : 0/0
  3331 ;;		On exit  : 0/0
  3332 ;;		Unchanged: 0/0
  3333 ;; Data sizes:     COMMON   BANK0   BANK1   BANK2   BANK3   BANK4   BANK5   BANK6   BANK7   BANK8   BANK9  BANK10  BANK1
      +1  BANK12
  3334 ;;      Params:         0       0       0       0       0       0       0       0       0       0       0       0       
      +0       0
  3335 ;;      Locals:         0       0       0       0       0       0       0       0       0       0       0       0       
      +0       0
  3336 ;;      Temps:          0       0       0       0       0       0       0       0       0       0       0       0       
      +0       0
  3337 ;;      Totals:         0       0       0       0       0       0       0       0       0       0       0       0       
      +0       0
  3338 ;;Total ram usage:        0 bytes
  3339 ;; Hardware stack levels used:    1
  3340 ;; This function calls:
  3341 ;;		Nothing
  3342 ;; This function is called by:
  3343 ;;		_SYSTEM_Initialize
  3344 ;; This function uses a non-reentrant model
  3345 ;;
  3346                           
  3347                           
  3348                           ;psect for function _TMR2_Initialize
  3349  06E0                     _TMR2_Initialize:	
  3350                           
  3351                           ;mcc_generated_files/tmr2.c: 67:     PR2 = 0x7F;
  3352                           
  3353                           ;incstack = 0
  3354                           ; Regs used in _TMR2_Initialize: [wreg+status,2]
  3355  06E0  307F               	movlw	127
  3356  06E1  0020               	movlb	0	; select bank0
  3357  06E2  009E               	movwf	30	;volatile
  3358                           
  3359                           ;mcc_generated_files/tmr2.c: 70:     TMR2 = 0x00;
  3360  06E3  019D               	clrf	29	;volatile
  3361                           
  3362                           ;mcc_generated_files/tmr2.c: 73:     PIR1bits.TMR2IF = 0;
  3363  06E4  1091               	bcf	17,1	;volatile
  3364                           
  3365                           ;mcc_generated_files/tmr2.c: 76:     T2CON = 0x04;
  3366  06E5  3004               	movlw	4
  3367  06E6  009F               	movwf	31	;volatile
  3368  06E7  0008               	return
  3369  06E8                     __end_of_TMR2_Initialize:	
  3370                           
  3371                           	psect	text4
  3372  06F4                     __ptext4:	
  3373 ;; *************** function _PWM1_Initialize *****************
  3374 ;; Defined at:
  3375 ;;		line 64 in file "mcc_generated_files/pwm1.c"
  3376 ;; Parameters:    Size  Location     Type
  3377 ;;		None
  3378 ;; Auto vars:     Size  Location     Type
  3379 ;;		None
  3380 ;; Return value:  Size  Location     Type
  3381 ;;                  1    wreg      void 
  3382 ;; Registers used:
  3383 ;;		wreg, status,2, status,0
  3384 ;; Tracked objects:
  3385 ;;		On entry : 0/0
  3386 ;;		On exit  : 0/0
  3387 ;;		Unchanged: 0/0
  3388 ;; Data sizes:     COMMON   BANK0   BANK1   BANK2   BANK3   BANK4   BANK5   BANK6   BANK7   BANK8   BANK9  BANK10  BANK1
      +1  BANK12
  3389 ;;      Params:         0       0       0       0       0       0       0       0       0       0       0       0       
      +0       0
  3390 ;;      Locals:         0       0       0       0       0       0       0       0       0       0       0       0       
      +0       0
  3391 ;;      Temps:          0       0       0       0       0       0       0       0       0       0       0       0       
      +0       0
  3392 ;;      Totals:         0       0       0       0       0       0       0       0       0       0       0       0       
      +0       0
  3393 ;;Total ram usage:        0 bytes
  3394 ;; Hardware stack levels used:    1
  3395 ;; This function calls:
  3396 ;;		Nothing
  3397 ;; This function is called by:
  3398 ;;		_SYSTEM_Initialize
  3399 ;; This function uses a non-reentrant model
  3400 ;;
  3401                           
  3402                           
  3403                           ;psect for function _PWM1_Initialize
  3404  06F4                     _PWM1_Initialize:	
  3405                           
  3406                           ;mcc_generated_files/pwm1.c: 69:  CCP1CON = 0x0F;
  3407                           
  3408                           ;incstack = 0
  3409                           ; Regs used in _PWM1_Initialize: [wreg+status,2+status,0]
  3410  06F4  300F               	movlw	15
  3411  06F5  0025               	movlb	5	; select bank5
  3412  06F6  0093               	movwf	19	;volatile
  3413                           
  3414                           ;mcc_generated_files/pwm1.c: 72:  CCPR1H = 0x01;
  3415  06F7  3001               	movlw	1
  3416  06F8  0092               	movwf	18	;volatile
  3417                           
  3418                           ;mcc_generated_files/pwm1.c: 75:  CCPR1L = 0x99;
  3419  06F9  3099               	movlw	153
  3420  06FA  0091               	movwf	17	;volatile
  3421                           
  3422                           ;mcc_generated_files/pwm1.c: 78:  CCPTMRSbits.C1TSEL = 0x1;
  3423  06FB  081F               	movf	31,w	;volatile
  3424  06FC  39FC               	andlw	-4
  3425  06FD  3801               	iorlw	1
  3426  06FE  009F               	movwf	31	;volatile
  3427  06FF  0008               	return
  3428  0700                     __end_of_PWM1_Initialize:	
  3429                           
  3430                           	psect	text5
  3431  06D8                     __ptext5:	
  3432 ;; *************** function _PMD_Initialize *****************
  3433 ;; Defined at:
  3434 ;;		line 83 in file "mcc_generated_files/mcc.c"
  3435 ;; Parameters:    Size  Location     Type
  3436 ;;		None
  3437 ;; Auto vars:     Size  Location     Type
  3438 ;;		None
  3439 ;; Return value:  Size  Location     Type
  3440 ;;                  1    wreg      void 
  3441 ;; Registers used:
  3442 ;;		status,2
  3443 ;; Tracked objects:
  3444 ;;		On entry : 0/0
  3445 ;;		On exit  : 0/0
  3446 ;;		Unchanged: 0/0
  3447 ;; Data sizes:     COMMON   BANK0   BANK1   BANK2   BANK3   BANK4   BANK5   BANK6   BANK7   BANK8   BANK9  BANK10  BANK1
      +1  BANK12
  3448 ;;      Params:         0       0       0       0       0       0       0       0       0       0       0       0       
      +0       0
  3449 ;;      Locals:         0       0       0       0       0       0       0       0       0       0       0       0       
      +0       0
  3450 ;;      Temps:          0       0       0       0       0       0       0       0       0       0       0       0       
      +0       0
  3451 ;;      Totals:         0       0       0       0       0       0       0       0       0       0       0       0       
      +0       0
  3452 ;;Total ram usage:        0 bytes
  3453 ;; Hardware stack levels used:    1
  3454 ;; This function calls:
  3455 ;;		Nothing
  3456 ;; This function is called by:
  3457 ;;		_SYSTEM_Initialize
  3458 ;; This function uses a non-reentrant model
  3459 ;;
  3460                           
  3461                           
  3462                           ;psect for function _PMD_Initialize
  3463  06D8                     _PMD_Initialize:	
  3464                           
  3465                           ;mcc_generated_files/mcc.c: 86:     PMD0 = 0x00;
  3466                           
  3467                           ;incstack = 0
  3468                           ; Regs used in _PMD_Initialize: [status,2]
  3469  06D8  0032               	movlb	18	; select bank18
  3470  06D9  0191               	clrf	17	;volatile
  3471                           
  3472                           ;mcc_generated_files/mcc.c: 88:     PMD1 = 0x00;
  3473  06DA  0192               	clrf	18	;volatile
  3474                           
  3475                           ;mcc_generated_files/mcc.c: 90:     PMD2 = 0x00;
  3476  06DB  0193               	clrf	19	;volatile
  3477                           
  3478                           ;mcc_generated_files/mcc.c: 92:     PMD3 = 0x00;
  3479  06DC  0194               	clrf	20	;volatile
  3480                           
  3481                           ;mcc_generated_files/mcc.c: 94:     PMD4 = 0x00;
  3482  06DD  0195               	clrf	21	;volatile
  3483                           
  3484                           ;mcc_generated_files/mcc.c: 96:     PMD5 = 0x00;
  3485  06DE  0196               	clrf	22	;volatile
  3486  06DF  0008               	return
  3487  06E0                     __end_of_PMD_Initialize:	
  3488                           
  3489                           	psect	text6
  3490  0718                     __ptext6:	
  3491 ;; *************** function _PIN_MANAGER_Initialize *****************
  3492 ;; Defined at:
  3493 ;;		line 57 in file "mcc_generated_files/pin_manager.c"
  3494 ;; Parameters:    Size  Location     Type
  3495 ;;		None
  3496 ;; Auto vars:     Size  Location     Type
  3497 ;;		None
  3498 ;; Return value:  Size  Location     Type
  3499 ;;                  1    wreg      void 
  3500 ;; Registers used:
  3501 ;;		wreg, status,2
  3502 ;; Tracked objects:
  3503 ;;		On entry : 0/0
  3504 ;;		On exit  : 0/0
  3505 ;;		Unchanged: 0/0
  3506 ;; Data sizes:     COMMON   BANK0   BANK1   BANK2   BANK3   BANK4   BANK5   BANK6   BANK7   BANK8   BANK9  BANK10  BANK1
      +1  BANK12
  3507 ;;      Params:         0       0       0       0       0       0       0       0       0       0       0       0       
      +0       0
  3508 ;;      Locals:         0       0       0       0       0       0       0       0       0       0       0       0       
      +0       0
  3509 ;;      Temps:          0       0       0       0       0       0       0       0       0       0       0       0       
      +0       0
  3510 ;;      Totals:         0       0       0       0       0       0       0       0       0       0       0       0       
      +0       0
  3511 ;;Total ram usage:        0 bytes
  3512 ;; Hardware stack levels used:    1
  3513 ;; This function calls:
  3514 ;;		Nothing
  3515 ;; This function is called by:
  3516 ;;		_SYSTEM_Initialize
  3517 ;; This function uses a non-reentrant model
  3518 ;;
  3519                           
  3520                           
  3521                           ;psect for function _PIN_MANAGER_Initialize
  3522  0718                     _PIN_MANAGER_Initialize:	
  3523                           
  3524                           ;mcc_generated_files/pin_manager.c: 62:     LATA = 0x00;
  3525                           
  3526                           ;incstack = 0
  3527                           ; Regs used in _PIN_MANAGER_Initialize: [wreg+status,2]
  3528  0718  0022               	movlb	2	; select bank2
  3529  0719  018C               	clrf	12	;volatile
  3530                           
  3531                           ;mcc_generated_files/pin_manager.c: 63:     LATB = 0x00;
  3532  071A  018D               	clrf	13	;volatile
  3533                           
  3534                           ;mcc_generated_files/pin_manager.c: 64:     LATC = 0x00;
  3535  071B  018E               	clrf	14	;volatile
  3536                           
  3537                           ;mcc_generated_files/pin_manager.c: 69:     TRISA = 0x37;
  3538  071C  3037               	movlw	55
  3539  071D  0021               	movlb	1	; select bank1
  3540  071E  008C               	movwf	12	;volatile
  3541                           
  3542                           ;mcc_generated_files/pin_manager.c: 70:     TRISB = 0x70;
  3543  071F  3070               	movlw	112
  3544  0720  008D               	movwf	13	;volatile
  3545                           
  3546                           ;mcc_generated_files/pin_manager.c: 71:     TRISC = 0x7F;
  3547  0721  307F               	movlw	127
  3548  0722  008E               	movwf	14	;volatile
  3549                           
  3550                           ;mcc_generated_files/pin_manager.c: 76:     ANSELC = 0x7F;
  3551  0723  307F               	movlw	127
  3552  0724  0023               	movlb	3	; select bank3
  3553  0725  008E               	movwf	14	;volatile
  3554                           
  3555                           ;mcc_generated_files/pin_manager.c: 77:     ANSELB = 0xF0;
  3556  0726  30F0               	movlw	240
  3557  0727  008D               	movwf	13	;volatile
  3558                           
  3559                           ;mcc_generated_files/pin_manager.c: 78:     ANSELA = 0x36;
  3560  0728  3036               	movlw	54
  3561  0729  008C               	movwf	12	;volatile
  3562                           
  3563                           ;mcc_generated_files/pin_manager.c: 83:     WPUB = 0x00;
  3564  072A  0024               	movlb	4	; select bank4
  3565  072B  018D               	clrf	13	;volatile
  3566                           
  3567                           ;mcc_generated_files/pin_manager.c: 84:     WPUA = 0x00;
  3568  072C  018C               	clrf	12	;volatile
  3569                           
  3570                           ;mcc_generated_files/pin_manager.c: 85:     WPUC = 0x00;
  3571  072D  018E               	clrf	14	;volatile
  3572                           
  3573                           ;mcc_generated_files/pin_manager.c: 90:     ODCONA = 0x00;
  3574  072E  0025               	movlb	5	; select bank5
  3575  072F  018C               	clrf	12	;volatile
  3576                           
  3577                           ;mcc_generated_files/pin_manager.c: 91:     ODCONB = 0x00;
  3578  0730  018D               	clrf	13	;volatile
  3579                           
  3580                           ;mcc_generated_files/pin_manager.c: 92:     ODCONC = 0x00;
  3581  0731  018E               	clrf	14	;volatile
  3582                           
  3583                           ;mcc_generated_files/pin_manager.c: 97:     SLRCONA = 0x37;
  3584  0732  3037               	movlw	55
  3585  0733  0026               	movlb	6	; select bank6
  3586  0734  008C               	movwf	12	;volatile
  3587                           
  3588                           ;mcc_generated_files/pin_manager.c: 98:     SLRCONB = 0xF0;
  3589  0735  30F0               	movlw	240
  3590  0736  008D               	movwf	13	;volatile
  3591                           
  3592                           ;mcc_generated_files/pin_manager.c: 99:     SLRCONC = 0xFF;
  3593  0737  30FF               	movlw	255
  3594  0738  008E               	movwf	14	;volatile
  3595                           
  3596                           ;mcc_generated_files/pin_manager.c: 108:     SSP1CLKPPS = 0x17;
  3597  0739  3017               	movlw	23
  3598  073A  003C               	movlb	28	; select bank28
  3599  073B  00A0               	movwf	32	;volatile
  3600                           
  3601                           ;mcc_generated_files/pin_manager.c: 109:     RB7PPS = 0x19;
  3602  073C  3019               	movlw	25
  3603  073D  003D               	movlb	29	; select bank29
  3604  073E  009F               	movwf	31	;volatile
  3605                           
  3606                           ;mcc_generated_files/pin_manager.c: 110:     RC7PPS = 0x18;
  3607  073F  3018               	movlw	24
  3608  0740  00A7               	movwf	39	;volatile
  3609                           
  3610                           ;mcc_generated_files/pin_manager.c: 111:     SSP1DATPPS = 0x00;
  3611  0741  003C               	movlb	28	; select bank28
  3612  0742  01A1               	clrf	33	;volatile
  3613  0743  0008               	return
  3614  0744                     __end_of_PIN_MANAGER_Initialize:	
  3615                           
  3616                           	psect	text7
  3617  06D0                     __ptext7:	
  3618 ;; *************** function _OSCILLATOR_Initialize *****************
  3619 ;; Defined at:
  3620 ;;		line 63 in file "mcc_generated_files/mcc.c"
  3621 ;; Parameters:    Size  Location     Type
  3622 ;;		None
  3623 ;; Auto vars:     Size  Location     Type
  3624 ;;		None
  3625 ;; Return value:  Size  Location     Type
  3626 ;;                  1    wreg      void 
  3627 ;; Registers used:
  3628 ;;		wreg, status,2
  3629 ;; Tracked objects:
  3630 ;;		On entry : 0/0
  3631 ;;		On exit  : 0/0
  3632 ;;		Unchanged: 0/0
  3633 ;; Data sizes:     COMMON   BANK0   BANK1   BANK2   BANK3   BANK4   BANK5   BANK6   BANK7   BANK8   BANK9  BANK10  BANK1
      +1  BANK12
  3634 ;;      Params:         0       0       0       0       0       0       0       0       0       0       0       0       
      +0       0
  3635 ;;      Locals:         0       0       0       0       0       0       0       0       0       0       0       0       
      +0       0
  3636 ;;      Temps:          0       0       0       0       0       0       0       0       0       0       0       0       
      +0       0
  3637 ;;      Totals:         0       0       0       0       0       0       0       0       0       0       0       0       
      +0       0
  3638 ;;Total ram usage:        0 bytes
  3639 ;; Hardware stack levels used:    1
  3640 ;; This function calls:
  3641 ;;		Nothing
  3642 ;; This function is called by:
  3643 ;;		_SYSTEM_Initialize
  3644 ;; This function uses a non-reentrant model
  3645 ;;
  3646                           
  3647                           
  3648                           ;psect for function _OSCILLATOR_Initialize
  3649  06D0                     _OSCILLATOR_Initialize:	
  3650                           
  3651                           ;mcc_generated_files/mcc.c: 66:     OSCCON1 = 0x62;
  3652                           
  3653                           ;incstack = 0
  3654                           ; Regs used in _OSCILLATOR_Initialize: [wreg+status,2]
  3655  06D0  3062               	movlw	98
  3656  06D1  0032               	movlb	18	; select bank18
  3657  06D2  0099               	movwf	25	;volatile
  3658                           
  3659                           ;mcc_generated_files/mcc.c: 68:     OSCCON3 = 0x00;
  3660  06D3  019B               	clrf	27	;volatile
  3661                           
  3662                           ;mcc_generated_files/mcc.c: 70:     OSCEN = 0x00;
  3663  06D4  019D               	clrf	29	;volatile
  3664                           
  3665                           ;mcc_generated_files/mcc.c: 72:     OSCFRQ = 0x00;
  3666  06D5  019F               	clrf	31	;volatile
  3667                           
  3668                           ;mcc_generated_files/mcc.c: 74:     OSCTUNE = 0x00;
  3669  06D6  019E               	clrf	30	;volatile
  3670  06D7  0008               	return
  3671  06D8                     __end_of_OSCILLATOR_Initialize:	
  3672                           
  3673                           	psect	text8
  3674  06C2                     __ptext8:	
  3675 ;; *************** function _ADC_Initialize *****************
  3676 ;; Defined at:
  3677 ;;		line 65 in file "mcc_generated_files/adc.c"
  3678 ;; Parameters:    Size  Location     Type
  3679 ;;		None
  3680 ;; Auto vars:     Size  Location     Type
  3681 ;;		None
  3682 ;; Return value:  Size  Location     Type
  3683 ;;                  1    wreg      void 
  3684 ;; Registers used:
  3685 ;;		status,2
  3686 ;; Tracked objects:
  3687 ;;		On entry : 0/0
  3688 ;;		On exit  : 0/0
  3689 ;;		Unchanged: 0/0
  3690 ;; Data sizes:     COMMON   BANK0   BANK1   BANK2   BANK3   BANK4   BANK5   BANK6   BANK7   BANK8   BANK9  BANK10  BANK1
      +1  BANK12
  3691 ;;      Params:         0       0       0       0       0       0       0       0       0       0       0       0       
      +0       0
  3692 ;;      Locals:         0       0       0       0       0       0       0       0       0       0       0       0       
      +0       0
  3693 ;;      Temps:          0       0       0       0       0       0       0       0       0       0       0       0       
      +0       0
  3694 ;;      Totals:         0       0       0       0       0       0       0       0       0       0       0       0       
      +0       0
  3695 ;;Total ram usage:        0 bytes
  3696 ;; Hardware stack levels used:    1
  3697 ;; This function calls:
  3698 ;;		Nothing
  3699 ;; This function is called by:
  3700 ;;		_SYSTEM_Initialize
  3701 ;; This function uses a non-reentrant model
  3702 ;;
  3703                           
  3704                           
  3705                           ;psect for function _ADC_Initialize
  3706  06C2                     _ADC_Initialize:	
  3707                           
  3708                           ;mcc_generated_files/adc.c: 70:     ADCON0 = 0x00;
  3709                           
  3710                           ;incstack = 0
  3711                           ; Regs used in _ADC_Initialize: [status,2]
  3712  06C2  0021               	movlb	1	; select bank1
  3713  06C3  019D               	clrf	29	;volatile
  3714                           
  3715                           ;mcc_generated_files/adc.c: 73:     ADCON1 = 0x00;
  3716  06C4  019E               	clrf	30	;volatile
  3717                           
  3718                           ;mcc_generated_files/adc.c: 76:     ADACT = 0x00;
  3719  06C5  019F               	clrf	31	;volatile
  3720                           
  3721                           ;mcc_generated_files/adc.c: 79:     ADRESL = 0x00;
  3722  06C6  019B               	clrf	27	;volatile
  3723                           
  3724                           ;mcc_generated_files/adc.c: 82:     ADRESH = 0x00;
  3725  06C7  019C               	clrf	28	;volatile
  3726  06C8  0008               	return
  3727  06C9                     __end_of_ADC_Initialize:	
  3728                           
  3729                           	psect	text9
  3730  0794                     __ptext9:	
  3731 ;; *************** function _SPI *****************
  3732 ;; Defined at:
  3733 ;;		line 109 in file "main.c"
  3734 ;; Parameters:    Size  Location     Type
  3735 ;;		None
  3736 ;; Auto vars:     Size  Location     Type
  3737 ;;  myWriteBuffe    2    2[BANK0 ] unsigned char [2]
  3738 ;;  myWriteBuffe    2    0[BANK0 ] unsigned char [2]
  3739 ;;  total           1    4[BANK0 ] unsigned char 
  3740 ;; Return value:  Size  Location     Type
  3741 ;;                  1    wreg      void 
  3742 ;; Registers used:
  3743 ;;		wreg, fsr1l, fsr1h, status,2, status,0, pclath, cstack
  3744 ;; Tracked objects:
  3745 ;;		On entry : 0/0
  3746 ;;		On exit  : 0/0
  3747 ;;		Unchanged: 0/0
  3748 ;; Data sizes:     COMMON   BANK0   BANK1   BANK2   BANK3   BANK4   BANK5   BANK6   BANK7   BANK8   BANK9  BANK10  BANK1
      +1  BANK12
  3749 ;;      Params:         0       0       0       0       0       0       0       0       0       0       0       0       
      +0       0
  3750 ;;      Locals:         0       5       0       0       0       0       0       0       0       0       0       0       
      +0       0
  3751 ;;      Temps:          3       0       0       0       0       0       0       0       0       0       0       0       
      +0       0
  3752 ;;      Totals:         3       5       0       0       0       0       0       0       0       0       0       0       
      +0       0
  3753 ;;Total ram usage:        8 bytes
  3754 ;; Hardware stack levels used:    1
  3755 ;; Hardware stack levels required when called:    2
  3756 ;; This function calls:
  3757 ;;		_SPI1_Exchange8bitBuffer
  3758 ;;		_SPI1_Initialize
  3759 ;; This function is called by:
  3760 ;;		_main
  3761 ;; This function uses a non-reentrant model
  3762 ;;
  3763                           
  3764                           
  3765                           ;psect for function _SPI
  3766  0794                     _SPI:	
  3767                           
  3768                           ;main.c: 110:     SPI1_Initialize();
  3769                           
  3770                           ;incstack = 0
  3771                           ; Regs used in _SPI: [wreg+fsr1l+fsr1h+status,2+status,0+pclath+cstack]
  3772  0794  3186  26BC  3187   	fcall	_SPI1_Initialize
  3773                           
  3774                           ;main.c: 111:     uint8_t myWriteBuffer[2] = {0xFE, 0x42};
  3775  0797  0020               	movlb	0	; select bank0
  3776  0798  082A               	movf	SPI@F6706+1,w
  3777  0799  00AD               	movwf	SPI@myWriteBuffer+1
  3778  079A  0829               	movf	SPI@F6706,w
  3779  079B  00AC               	movwf	SPI@myWriteBuffer
  3780                           
  3781                           ;main.c: 112:     uint8_t total;;main.c: 113:     uint8_t myWriteBuffer1[2] = {0xFE, 0x4
      +                          B};
  3782  079C  0828               	movf	SPI@F6709+1,w
  3783  079D  00AF               	movwf	SPI@myWriteBuffer1+1
  3784  079E  0827               	movf	SPI@F6709,w
  3785  079F  00AE               	movwf	SPI@myWriteBuffer1
  3786                           
  3787                           ;main.c: 115:     SPI1_Initialize();
  3788  07A0  3186  26BC  3187   	fcall	_SPI1_Initialize
  3789                           
  3790                           ;main.c: 117:     total = 0;
  3791  07A3  0020               	movlb	0	; select bank0
  3792  07A4  01B0               	clrf	SPI@total
  3793  07A5                     l1184:	
  3794                           
  3795                           ;main.c: 119:     {;main.c: 120:         total = SPI1_Exchange8bitBuffer(&myWriteBuffer[
      +                          total], 2 - total, &myWriteBuffer[total]);
  3796  07A5  0830               	movf	SPI@total,w
  3797  07A6  3C02               	sublw	2
  3798  07A7  00F8               	movwf	??_SPI
  3799  07A8  0878               	movf	??_SPI,w
  3800  07A9  00F1               	movwf	SPI1_Exchange8bitBuffer@bufLen
  3801  07AA  0830               	movf	SPI@total,w
  3802  07AB  3E2C               	addlw	(low (SPI@myWriteBuffer| 0))& (0+255)
  3803  07AC  00F9               	movwf	??_SPI+1
  3804  07AD  0879               	movf	??_SPI+1,w
  3805  07AE  00F2               	movwf	SPI1_Exchange8bitBuffer@dataOut
  3806  07AF  0830               	movf	SPI@total,w
  3807  07B0  3E2C               	addlw	(low (SPI@myWriteBuffer| 0))& (0+255)
  3808  07B1  3187  2744  3187   	fcall	_SPI1_Exchange8bitBuffer
  3809  07B4  00FA               	movwf	??_SPI+2
  3810  07B5  087A               	movf	??_SPI+2,w
  3811  07B6  0020               	movlb	0	; select bank0
  3812  07B7  00B0               	movwf	SPI@total
  3813                           
  3814                           ;main.c: 121:         _delay((unsigned long)((1000)*(250000/4000.0)));
  3815  07B8  3052               	movlw	82
  3816  07B9  00F8               	movwf	??_SPI
  3817  07BA  302A               	movlw	42
  3818  07BB                     u237:	
  3819  07BB  0B89               	decfsz	9,f
  3820  07BC  2FBB               	goto	u237
  3821  07BD  0BF8               	decfsz	??_SPI,f
  3822  07BE  2FBB               	goto	u237
  3823                           
  3824                           ;main.c: 123:     } while(total < 2);
  3825  07BF  3002               	movlw	2
  3826  07C0  0020               	movlb	0	; select bank0
  3827  07C1  0230               	subwf	SPI@total,w
  3828  07C2  1C03               	skipc
  3829  07C3  2FA5               	goto	l1184
  3830                           
  3831                           ;main.c: 125:         total = 0;
  3832  07C4  01B0               	clrf	SPI@total
  3833  07C5                     l1192:	
  3834                           
  3835                           ;main.c: 127:     {;main.c: 128:         total = SPI1_Exchange8bitBuffer(&myWriteBuffer1
      +                          [total], 2 - total, &myWriteBuffer1[total]);
  3836  07C5  0830               	movf	SPI@total,w
  3837  07C6  3C02               	sublw	2
  3838  07C7  00F8               	movwf	??_SPI
  3839  07C8  0878               	movf	??_SPI,w
  3840  07C9  00F1               	movwf	SPI1_Exchange8bitBuffer@bufLen
  3841  07CA  0830               	movf	SPI@total,w
  3842  07CB  3E2E               	addlw	(low (SPI@myWriteBuffer1| 0))& (0+255)
  3843  07CC  00F9               	movwf	??_SPI+1
  3844  07CD  0879               	movf	??_SPI+1,w
  3845  07CE  00F2               	movwf	SPI1_Exchange8bitBuffer@dataOut
  3846  07CF  0830               	movf	SPI@total,w
  3847  07D0  3E2E               	addlw	(low (SPI@myWriteBuffer1| 0))& (0+255)
  3848  07D1  3187  2744  3187   	fcall	_SPI1_Exchange8bitBuffer
  3849  07D4  00FA               	movwf	??_SPI+2
  3850  07D5  087A               	movf	??_SPI+2,w
  3851  07D6  0020               	movlb	0	; select bank0
  3852  07D7  00B0               	movwf	SPI@total
  3853                           
  3854                           ;main.c: 130:        _delay((unsigned long)((1000)*(250000/4000.0)));
  3855  07D8  3052               	movlw	82
  3856  07D9  00F8               	movwf	??_SPI
  3857  07DA  302A               	movlw	42
  3858  07DB                     u247:	
  3859  07DB  0B89               	decfsz	9,f
  3860  07DC  2FDB               	goto	u247
  3861  07DD  0BF8               	decfsz	??_SPI,f
  3862  07DE  2FDB               	goto	u247
  3863                           
  3864                           ;main.c: 131:     } while(total < 2);
  3865  07DF  3002               	movlw	2
  3866  07E0  0020               	movlb	0	; select bank0
  3867  07E1  0230               	subwf	SPI@total,w
  3868  07E2  1803               	btfsc	3,0
  3869  07E3  0008               	return
  3870  07E4  2FC5               	goto	l1192
  3871  07E5                     __end_of_SPI:	
  3872                           
  3873                           	psect	text10
  3874  06BC                     __ptext10:	
  3875 ;; *************** function _SPI1_Initialize *****************
  3876 ;; Defined at:
  3877 ;;		line 65 in file "mcc_generated_files/spi1.c"
  3878 ;; Parameters:    Size  Location     Type
  3879 ;;		None
  3880 ;; Auto vars:     Size  Location     Type
  3881 ;;		None
  3882 ;; Return value:  Size  Location     Type
  3883 ;;                  1    wreg      void 
  3884 ;; Registers used:
  3885 ;;		wreg, status,2
  3886 ;; Tracked objects:
  3887 ;;		On entry : 0/0
  3888 ;;		On exit  : 0/0
  3889 ;;		Unchanged: 0/0
  3890 ;; Data sizes:     COMMON   BANK0   BANK1   BANK2   BANK3   BANK4   BANK5   BANK6   BANK7   BANK8   BANK9  BANK10  BANK1
      +1  BANK12
  3891 ;;      Params:         0       0       0       0       0       0       0       0       0       0       0       0       
      +0       0
  3892 ;;      Locals:         0       0       0       0       0       0       0       0       0       0       0       0       
      +0       0
  3893 ;;      Temps:          0       0       0       0       0       0       0       0       0       0       0       0       
      +0       0
  3894 ;;      Totals:         0       0       0       0       0       0       0       0       0       0       0       0       
      +0       0
  3895 ;;Total ram usage:        0 bytes
  3896 ;; Hardware stack levels used:    1
  3897 ;; This function calls:
  3898 ;;		Nothing
  3899 ;; This function is called by:
  3900 ;;		_SYSTEM_Initialize
  3901 ;;		_SPI
  3902 ;; This function uses a non-reentrant model
  3903 ;;
  3904                           
  3905                           
  3906                           ;psect for function _SPI1_Initialize
  3907  06BC                     _SPI1_Initialize:	
  3908                           
  3909                           ;mcc_generated_files/spi1.c: 70:     SSP1STAT = 0x00;
  3910                           
  3911                           ;incstack = 0
  3912                           ; Regs used in _SPI1_Initialize: [wreg+status,2]
  3913  06BC  0024               	movlb	4	; select bank4
  3914  06BD  0194               	clrf	20	;volatile
  3915                           
  3916                           ;mcc_generated_files/spi1.c: 73:     SSP1CON1 = 0x20;
  3917  06BE  3020               	movlw	32
  3918  06BF  0095               	movwf	21	;volatile
  3919                           
  3920                           ;mcc_generated_files/spi1.c: 76:     SSP1ADD = 0x00;
  3921  06C0  0192               	clrf	18	;volatile
  3922  06C1  0008               	return
  3923  06C2                     __end_of_SPI1_Initialize:	
  3924                           
  3925                           	psect	text11
  3926  0744                     __ptext11:	
  3927 ;; *************** function _SPI1_Exchange8bitBuffer *****************
  3928 ;; Defined at:
  3929 ;;		line 94 in file "mcc_generated_files/spi1.c"
  3930 ;; Parameters:    Size  Location     Type
  3931 ;;  dataIn          1    wreg     PTR unsigned char 
  3932 ;;		 -> SPI@myWriteBuffer1(2), SPI@myWriteBuffer(2), 
  3933 ;;  bufLen          1    1[COMMON] unsigned char 
  3934 ;;  dataOut         1    2[COMMON] PTR unsigned char 
  3935 ;;		 -> SPI@myWriteBuffer1(2), SPI@myWriteBuffer(2), 
  3936 ;; Auto vars:     Size  Location     Type
  3937 ;;  dataIn          1    6[COMMON] PTR unsigned char 
  3938 ;;		 -> SPI@myWriteBuffer1(2), SPI@myWriteBuffer(2), 
  3939 ;;  bytesWritten    1    7[COMMON] unsigned char 
  3940 ;; Return value:  Size  Location     Type
  3941 ;;                  1    wreg      unsigned char 
  3942 ;; Registers used:
  3943 ;;		wreg, fsr1l, fsr1h, status,2, status,0, pclath, cstack
  3944 ;; Tracked objects:
  3945 ;;		On entry : 0/0
  3946 ;;		On exit  : 0/0
  3947 ;;		Unchanged: 0/0
  3948 ;; Data sizes:     COMMON   BANK0   BANK1   BANK2   BANK3   BANK4   BANK5   BANK6   BANK7   BANK8   BANK9  BANK10  BANK1
      +1  BANK12
  3949 ;;      Params:         2       0       0       0       0       0       0       0       0       0       0       0       
      +0       0
  3950 ;;      Locals:         2       0       0       0       0       0       0       0       0       0       0       0       
      +0       0
  3951 ;;      Temps:          3       0       0       0       0       0       0       0       0       0       0       0       
      +0       0
  3952 ;;      Totals:         7       0       0       0       0       0       0       0       0       0       0       0       
      +0       0
  3953 ;;Total ram usage:        7 bytes
  3954 ;; Hardware stack levels used:    1
  3955 ;; Hardware stack levels required when called:    1
  3956 ;; This function calls:
  3957 ;;		_SPI1_Exchange8bit
  3958 ;; This function is called by:
  3959 ;;		_SPI
  3960 ;; This function uses a non-reentrant model
  3961 ;;
  3962                           
  3963                           
  3964                           ;psect for function _SPI1_Exchange8bitBuffer
  3965  0744                     _SPI1_Exchange8bitBuffer:	
  3966                           
  3967                           ;incstack = 0
  3968                           ; Regs used in _SPI1_Exchange8bitBuffer: [wreg+fsr1l+fsr1h+status,2+status,0+pclath+csta
      +                          ck]
  3969                           ;SPI1_Exchange8bitBuffer@dataIn stored from wreg
  3970  0744  00F6               	movwf	SPI1_Exchange8bitBuffer@dataIn
  3971                           
  3972                           ;mcc_generated_files/spi1.c: 94: uint8_t SPI1_Exchange8bitBuffer(uint8_t *dataIn, uint8_
      +                          t bufLen, uint8_t *dataOut);mcc_generated_files/spi1.c: 95: {;mcc_generated_files/spi1.c
      +                          : 96:     uint8_t bytesWritten = 0;
  3973  0745  01F7               	clrf	SPI1_Exchange8bitBuffer@bytesWritten
  3974                           
  3975                           ;mcc_generated_files/spi1.c: 98:     if(bufLen != 0)
  3976  0746  0871               	movf	SPI1_Exchange8bitBuffer@bufLen,w
  3977  0747  1903               	btfsc	3,2
  3978  0748  2F92               	goto	l1158
  3979                           
  3980                           ;mcc_generated_files/spi1.c: 99:     {;mcc_generated_files/spi1.c: 100:         if(dataI
      +                          n != ((void*)0))
  3981  0749  0876               	movf	SPI1_Exchange8bitBuffer@dataIn,w
  3982  074A  1D03               	btfss	3,2
  3983  074B  2F73               	goto	l1146
  3984  074C  2F78               	goto	l1148
  3985  074D                     l1138:	
  3986                           
  3987                           ;mcc_generated_files/spi1.c: 103:             {;mcc_generated_files/spi1.c: 104:        
      +                                   if(dataOut == ((void*)0))
  3988  074D  0872               	movf	SPI1_Exchange8bitBuffer@dataOut,w
  3989  074E  1D03               	btfss	3,2
  3990  074F  2F5B               	goto	l1142
  3991                           
  3992                           ;mcc_generated_files/spi1.c: 105:                 {;mcc_generated_files/spi1.c: 106:    
      +                                           SPI1_Exchange8bit(dataIn[bytesWritten]);
  3993  0750  0877               	movf	SPI1_Exchange8bitBuffer@bytesWritten,w
  3994  0751  0776               	addwf	SPI1_Exchange8bitBuffer@dataIn,w
  3995  0752  00F3               	movwf	??_SPI1_Exchange8bitBuffer
  3996  0753  0873               	movf	??_SPI1_Exchange8bitBuffer,w
  3997  0754  0086               	movwf	6
  3998  0755  0187               	clrf	7
  3999  0756  0801               	movf	1,w
  4000  0757  3186  26E8  3187   	fcall	_SPI1_Exchange8bit
  4001                           
  4002                           ;mcc_generated_files/spi1.c: 107:                 }
  4003  075A  2F6E               	goto	l1144
  4004  075B                     l1142:	
  4005                           
  4006                           ;mcc_generated_files/spi1.c: 109:                 {;mcc_generated_files/spi1.c: 110:    
      +                                           dataOut[bytesWritten] = SPI1_Exchange8bit(dataIn[bytesWritten]);
  4007  075B  0877               	movf	SPI1_Exchange8bitBuffer@bytesWritten,w
  4008  075C  0776               	addwf	SPI1_Exchange8bitBuffer@dataIn,w
  4009  075D  00F3               	movwf	??_SPI1_Exchange8bitBuffer
  4010  075E  0873               	movf	??_SPI1_Exchange8bitBuffer,w
  4011  075F  0086               	movwf	6
  4012  0760  0187               	clrf	7
  4013  0761  0801               	movf	1,w
  4014  0762  3186  26E8  3187   	fcall	_SPI1_Exchange8bit
  4015  0765  00F4               	movwf	??_SPI1_Exchange8bitBuffer+1
  4016  0766  0877               	movf	SPI1_Exchange8bitBuffer@bytesWritten,w
  4017  0767  0772               	addwf	SPI1_Exchange8bitBuffer@dataOut,w
  4018  0768  00F5               	movwf	??_SPI1_Exchange8bitBuffer+2
  4019  0769  0875               	movf	??_SPI1_Exchange8bitBuffer+2,w
  4020  076A  0086               	movwf	6
  4021  076B  0187               	clrf	7
  4022  076C  0874               	movf	??_SPI1_Exchange8bitBuffer+1,w
  4023  076D  0081               	movwf	1
  4024  076E                     l1144:	
  4025                           
  4026                           ;mcc_generated_files/spi1.c: 113:                 bytesWritten++;
  4027  076E  3001               	movlw	1
  4028  076F  00F3               	movwf	??_SPI1_Exchange8bitBuffer
  4029  0770  0873               	movf	??_SPI1_Exchange8bitBuffer,w
  4030  0771  07F7               	addwf	SPI1_Exchange8bitBuffer@bytesWritten,f
  4031  0772  0064               	clrwdt	;# 
  4032  0773                     l1146:	
  4033                           
  4034                           ;mcc_generated_files/spi1.c: 102:             while(bytesWritten < bufLen)
  4035  0773  0871               	movf	SPI1_Exchange8bitBuffer@bufLen,w
  4036  0774  0277               	subwf	SPI1_Exchange8bitBuffer@bytesWritten,w
  4037  0775  1803               	btfsc	3,0
  4038  0776  2F92               	goto	l1158
  4039  0777  2F4D               	goto	l1138
  4040  0778                     l1148:	
  4041                           
  4042                           ;mcc_generated_files/spi1.c: 118:         {;mcc_generated_files/spi1.c: 119:            
      +                           if(dataOut != ((void*)0))
  4043  0778  0872               	movf	SPI1_Exchange8bitBuffer@dataOut,w
  4044  0779  1D03               	btfss	3,2
  4045  077A  2F8E               	goto	l1156
  4046  077B  2F92               	goto	l1158
  4047  077C                     l1152:	
  4048                           
  4049                           ;mcc_generated_files/spi1.c: 122:                 {;mcc_generated_files/spi1.c: 123:    
      +                                           dataOut[bytesWritten] = SPI1_Exchange8bit(0x0);
  4050  077C  3000               	movlw	0
  4051  077D  3186  26E8  3187   	fcall	_SPI1_Exchange8bit
  4052  0780  00F3               	movwf	??_SPI1_Exchange8bitBuffer
  4053  0781  0877               	movf	SPI1_Exchange8bitBuffer@bytesWritten,w
  4054  0782  0772               	addwf	SPI1_Exchange8bitBuffer@dataOut,w
  4055  0783  00F4               	movwf	??_SPI1_Exchange8bitBuffer+1
  4056  0784  0874               	movf	??_SPI1_Exchange8bitBuffer+1,w
  4057  0785  0086               	movwf	6
  4058  0786  0187               	clrf	7
  4059  0787  0873               	movf	??_SPI1_Exchange8bitBuffer,w
  4060  0788  0081               	movwf	1
  4061                           
  4062                           ;mcc_generated_files/spi1.c: 125:                     bytesWritten++;
  4063  0789  3001               	movlw	1
  4064  078A  00F3               	movwf	??_SPI1_Exchange8bitBuffer
  4065  078B  0873               	movf	??_SPI1_Exchange8bitBuffer,w
  4066  078C  07F7               	addwf	SPI1_Exchange8bitBuffer@bytesWritten,f
  4067  078D  0064               	clrwdt	;# 
  4068  078E                     l1156:	
  4069                           
  4070                           ;mcc_generated_files/spi1.c: 121:                 while(bytesWritten < bufLen )
  4071  078E  0871               	movf	SPI1_Exchange8bitBuffer@bufLen,w
  4072  078F  0277               	subwf	SPI1_Exchange8bitBuffer@bytesWritten,w
  4073  0790  1C03               	skipc
  4074  0791  2F7C               	goto	l1152
  4075  0792                     l1158:	
  4076                           
  4077                           ;mcc_generated_files/spi1.c: 132:     return bytesWritten;
  4078  0792  0877               	movf	SPI1_Exchange8bitBuffer@bytesWritten,w
  4079  0793  0008               	return
  4080  0794                     __end_of_SPI1_Exchange8bitBuffer:	
  4081                           
  4082                           	psect	text12
  4083  06E8                     __ptext12:	
  4084 ;; *************** function _SPI1_Exchange8bit *****************
  4085 ;; Defined at:
  4086 ;;		line 79 in file "mcc_generated_files/spi1.c"
  4087 ;; Parameters:    Size  Location     Type
  4088 ;;  data            1    wreg     unsigned char 
  4089 ;; Auto vars:     Size  Location     Type
  4090 ;;  data            1    0[COMMON] unsigned char 
  4091 ;; Return value:  Size  Location     Type
  4092 ;;                  1    wreg      unsigned char 
  4093 ;; Registers used:
  4094 ;;		wreg
  4095 ;; Tracked objects:
  4096 ;;		On entry : 0/0
  4097 ;;		On exit  : 0/0
  4098 ;;		Unchanged: 0/0
  4099 ;; Data sizes:     COMMON   BANK0   BANK1   BANK2   BANK3   BANK4   BANK5   BANK6   BANK7   BANK8   BANK9  BANK10  BANK1
      +1  BANK12
  4100 ;;      Params:         0       0       0       0       0       0       0       0       0       0       0       0       
      +0       0
  4101 ;;      Locals:         1       0       0       0       0       0       0       0       0       0       0       0       
      +0       0
  4102 ;;      Temps:          0       0       0       0       0       0       0       0       0       0       0       0       
      +0       0
  4103 ;;      Totals:         1       0       0       0       0       0       0       0       0       0       0       0       
      +0       0
  4104 ;;Total ram usage:        1 bytes
  4105 ;; Hardware stack levels used:    1
  4106 ;; This function calls:
  4107 ;;		Nothing
  4108 ;; This function is called by:
  4109 ;;		_SPI1_Exchange8bitBuffer
  4110 ;; This function uses a non-reentrant model
  4111 ;;
  4112                           
  4113                           
  4114                           ;psect for function _SPI1_Exchange8bit
  4115  06E8                     _SPI1_Exchange8bit:	
  4116                           
  4117                           ;incstack = 0
  4118                           ; Regs used in _SPI1_Exchange8bit: [wreg]
  4119                           ;SPI1_Exchange8bit@data stored from wreg
  4120  06E8  00F0               	movwf	SPI1_Exchange8bit@data
  4121                           
  4122                           ;mcc_generated_files/spi1.c: 79: uint8_t SPI1_Exchange8bit(uint8_t data);mcc_generated_f
      +                          iles/spi1.c: 80: {;mcc_generated_files/spi1.c: 82:     SSP1CON1bits.WCOL = 0;
  4123  06E9  0024               	movlb	4	; select bank4
  4124  06EA  1395               	bcf	21,7	;volatile
  4125                           
  4126                           ;mcc_generated_files/spi1.c: 84:     SSP1BUF = data;
  4127  06EB  0870               	movf	SPI1_Exchange8bit@data,w
  4128  06EC  0091               	movwf	17	;volatile
  4129  06ED                     l18:	
  4130                           ;mcc_generated_files/spi1.c: 89:     }
  4131                           
  4132                           ;mcc_generated_files/spi1.c: 86:     while(SSP1STATbits.BF == 0x0)
  4133                           
  4134                           
  4135                           ;mcc_generated_files/spi1.c: 86:     while(SSP1STATbits.BF == 0x0)
  4136  06ED  0024               	movlb	4	; select bank4
  4137  06EE  1814               	btfsc	20,0	;volatile
  4138  06EF  2EF2               	goto	l1120
  4139  06F0  0064               	clrwdt	;# 
  4140  06F1  2EED               	goto	l18
  4141  06F2                     l1120:	
  4142                           
  4143                           ;mcc_generated_files/spi1.c: 91:     return (SSP1BUF);
  4144  06F2  0811               	movf	17,w	;volatile
  4145  06F3  0008               	return
  4146  06F4                     __end_of_SPI1_Exchange8bit:	
  4147  007E                     btemp	set	126	;btemp
  4148  007E                     wtemp0	set	126


Data Sizes:
    Strings     0
    Constant    0
    Data        5
    BSS         10
    Persistent  32
    Stack       0

Auto Spaces:
    Space          Size  Autos    Used
    COMMON           14     11      14
    BANK0            80      5      17
    BANK1            80      0       0
    BANK2            80      0       0
    BANK3            80      0       0
    BANK4            80      0       0
    BANK5            80      0       0
    BANK6            80      0       0
    BANK7            80      0       0
    BANK8            80      0       0
    BANK9            80      0       0
    BANK10           80      0       0
    BANK11           80      0       0
    BANK12           48      0       0

Pointer List with Targets:

    SPI1_Exchange8bitBuffer@dataOut	PTR unsigned char  size(1) Largest target is 2
		 -> SPI@myWriteBuffer1(BANK0[2]), SPI@myWriteBuffer(BANK0[2]), 

    SPI1_Exchange8bitBuffer@dataIn	PTR unsigned char  size(1) Largest target is 2
		 -> SPI@myWriteBuffer1(BANK0[2]), SPI@myWriteBuffer(BANK0[2]), 


Critical Paths under _main in COMMON

    _main->_SPI
    _SPI->_SPI1_Exchange8bitBuffer
    _SPI1_Exchange8bitBuffer->_SPI1_Exchange8bit

Critical Paths under _main in BANK0

    _main->_SPI

Critical Paths under _main in BANK1

    None.

Critical Paths under _main in BANK2

    None.

Critical Paths under _main in BANK3

    None.

Critical Paths under _main in BANK4

    None.

Critical Paths under _main in BANK5

    None.

Critical Paths under _main in BANK6

    None.

Critical Paths under _main in BANK7

    None.

Critical Paths under _main in BANK8

    None.

Critical Paths under _main in BANK9

    None.

Critical Paths under _main in BANK10

    None.

Critical Paths under _main in BANK11

    None.

Critical Paths under _main in BANK12

    None.

Call Graph Tables:

 ---------------------------------------------------------------------------------
 (Depth) Function   	        Calls       Base Space   Used Autos Params    Refs
 ---------------------------------------------------------------------------------
 (0) _main                                                 0     0      0    1051
                                _SPI
                  _SYSTEM_Initialize
 ---------------------------------------------------------------------------------
 (1) _SYSTEM_Initialize                                    0     0      0       0
                     _ADC_Initialize
              _OSCILLATOR_Initialize
             _PIN_MANAGER_Initialize
                     _PMD_Initialize
                    _PWM1_Initialize
                    _SPI1_Initialize
                    _TMR2_Initialize
                     _WDT_Initialize
 ---------------------------------------------------------------------------------
 (2) _WDT_Initialize                                       0     0      0       0
 ---------------------------------------------------------------------------------
 (2) _TMR2_Initialize                                      0     0      0       0
 ---------------------------------------------------------------------------------
 (2) _PWM1_Initialize                                      0     0      0       0
 ---------------------------------------------------------------------------------
 (2) _PMD_Initialize                                       0     0      0       0
 ---------------------------------------------------------------------------------
 (2) _PIN_MANAGER_Initialize                               0     0      0       0
 ---------------------------------------------------------------------------------
 (2) _OSCILLATOR_Initialize                                0     0      0       0
 ---------------------------------------------------------------------------------
 (2) _ADC_Initialize                                       0     0      0       0
 ---------------------------------------------------------------------------------
 (1) _SPI                                                  8     8      0    1051
                                              8 COMMON     3     3      0
                                              0 BANK0      5     5      0
            _SPI1_Exchange8bitBuffer
                    _SPI1_Initialize
 ---------------------------------------------------------------------------------
 (2) _SPI1_Initialize                                      0     0      0       0
 ---------------------------------------------------------------------------------
 (2) _SPI1_Exchange8bitBuffer                              7     5      2     769
                                              1 COMMON     7     5      2
                  _SPI1_Exchange8bit
 ---------------------------------------------------------------------------------
 (3) _SPI1_Exchange8bit                                    1     1      0      22
                                              0 COMMON     1     1      0
 ---------------------------------------------------------------------------------
 Estimated maximum stack depth 3
 ---------------------------------------------------------------------------------

 Call Graph Graphs:

 _main (ROOT)
   _SPI
     _SPI1_Exchange8bitBuffer
       _SPI1_Exchange8bit
     _SPI1_Initialize
   _SYSTEM_Initialize
     _ADC_Initialize
     _OSCILLATOR_Initialize
     _PIN_MANAGER_Initialize
     _PMD_Initialize
     _PWM1_Initialize
     _SPI1_Initialize
     _TMR2_Initialize
     _WDT_Initialize

 Address spaces:
Name               Size   Autos  Total    Cost      Usage
BIGRAM             3F0      0       0       0        0.0%
EEDATA             100      0       0       0        0.0%
NULL                 0      0       0       0        0.0%
CODE                 0      0       0       0        0.0%
BITCOMMON            E      0       0       1        0.0%
BITSFR0              0      0       0       1        0.0%
SFR0                 0      0       0       1        0.0%
COMMON               E      B       E       2      100.0%
BITSFR1              0      0       0       2        0.0%
SFR1                 0      0       0       2        0.0%
BITSFR2              0      0       0       3        0.0%
SFR2                 0      0       0       3        0.0%
STACK                0      0       0       3        0.0%
BITBANK0            50      0       0       4        0.0%
BITSFR3              0      0       0       4        0.0%
SFR3                 0      0       0       4        0.0%
BANK0               50      5      11       5       21.3%
BITSFR4              0      0       0       5        0.0%
SFR4                 0      0       0       5        0.0%
BITBANK1            50      0       0       6        0.0%
BITSFR5              0      0       0       6        0.0%
SFR5                 0      0       0       6        0.0%
BANK1               50      0       0       7        0.0%
BITSFR6              0      0       0       7        0.0%
SFR6                 0      0       0       7        0.0%
BITBANK2            50      0       0       8        0.0%
BITSFR7              0      0       0       8        0.0%
SFR7                 0      0       0       8        0.0%
BANK2               50      0       0       9        0.0%
BITSFR8              0      0       0       9        0.0%
SFR8                 0      0       0       9        0.0%
BITBANK3            50      0       0      10        0.0%
BITSFR9              0      0       0      10        0.0%
SFR9                 0      0       0      10        0.0%
BANK3               50      0       0      11        0.0%
BITSFR10             0      0       0      11        0.0%
SFR10                0      0       0      11        0.0%
BITBANK4            50      0       0      12        0.0%
BITSFR11             0      0       0      12        0.0%
SFR11                0      0       0      12        0.0%
BANK4               50      0       0      13        0.0%
BITSFR12             0      0       0      13        0.0%
SFR12                0      0       0      13        0.0%
BITBANK5            50      0       0      14        0.0%
BITSFR13             0      0       0      14        0.0%
SFR13                0      0       0      14        0.0%
BANK5               50      0       0      15        0.0%
BITSFR14             0      0       0      15        0.0%
SFR14                0      0       0      15        0.0%
BITBANK6            50      0       0      16        0.0%
BITSFR15             0      0       0      16        0.0%
SFR15                0      0       0      16        0.0%
BANK6               50      0       0      17        0.0%
BITSFR16             0      0       0      17        0.0%
SFR16                0      0       0      17        0.0%
BITBANK7            50      0       0      18        0.0%
BITSFR17             0      0       0      18        0.0%
SFR17                0      0       0      18        0.0%
BANK7               50      0       0      19        0.0%
BITSFR18             0      0       0      19        0.0%
SFR18                0      0       0      19        0.0%
BITSFR19             0      0       0      20        0.0%
SFR19                0      0       0      20        0.0%
ABS                  0      0      1F      20        0.0%
BITBANK8            50      0       0      21        0.0%
BITSFR20             0      0       0      21        0.0%
SFR20                0      0       0      21        0.0%
BANK8               50      0       0      22        0.0%
BITSFR21             0      0       0      22        0.0%
SFR21                0      0       0      22        0.0%
BITBANK9            50      0       0      23        0.0%
BITSFR22             0      0       0      23        0.0%
SFR22                0      0       0      23        0.0%
BANK9               50      0       0      24        0.0%
BITSFR23             0      0       0      24        0.0%
SFR23                0      0       0      24        0.0%
BITBANK10           50      0       0      25        0.0%
BITSFR24             0      0       0      25        0.0%
SFR24                0      0       0      25        0.0%
BANK10              50      0       0      26        0.0%
BITSFR25             0      0       0      26        0.0%
SFR25                0      0       0      26        0.0%
BITBANK11           50      0       0      27        0.0%
BITSFR26             0      0       0      27        0.0%
SFR26                0      0       0      27        0.0%
BANK11              50      0       0      28        0.0%
BITSFR27             0      0       0      28        0.0%
SFR27                0      0       0      28        0.0%
BITBANK12           30      0       0      29        0.0%
BITSFR28             0      0       0      29        0.0%
SFR28                0      0       0      29        0.0%
BANK12              30      0       0      30        0.0%
BITSFR29             0      0       0      30        0.0%
SFR29                0      0       0      30        0.0%
BITSFR30             0      0       0      31        0.0%
SFR30                0      0       0      31        0.0%
DATA                 0      0      1F      31        0.0%
BITSFR31             0      0       0      32        0.0%
SFR31                0      0       0      32        0.0%


Microchip Technology PIC Macro Assembler V2.05 build -831301201 
Symbol Table                                                                                   Sun Feb 24 16:50:57 2019

                  _SPI1_Exchange8bit 06E8                   ?_SPI1_Exchange8bit 0070  
                        __CFG_CP$OFF 0000                                   l18 06ED  
                        __CFG_LVP$ON 0000                                  u237 07BB  
                                _PR2 001E                                  u247 07DB  
                       __CFG_CPD$OFF 0000                                  _SPI 0794  
                ??_SPI1_Exchange8bit 0070              __size_of_PMD_Initialize 0008  
                    _TMR2_Initialize 06E0       SPI1_Exchange8bitBuffer@dataOut 0072  
                                wreg 0009                                 ?_SPI 0070  
                               l1120 06F2                                 l1200 06CC  
                               l1142 075B                                 l1152 077C  
                               l1144 076E                                 l1138 074D  
                               l1146 0773                                 l1156 078E  
                               l1148 0778                                 l1158 0792  
                               l1192 07C5                                 l1184 07A5  
            __end_of_PWM1_Initialize 0700                                 _LATA 010C  
                               _LATB 010D                                 _LATC 010E  
                               _PMD0 0911                                 _PMD1 0912  
                               _PMD2 0913                                 _PMD3 0914  
                               _PMD4 0915                                 _PMD5 0916  
                               _TMR2 001D                                 _WPUA 020C  
                               _WPUB 020D                                 _WPUC 020E  
                       __CFG_WRT$OFF 0000                        __CFG_FCMEN$ON 0000  
                               _main 06C9                                 fsr0h 0005  
                               fsr1h 0007                                 fsr0l 0004  
                               indf1 0001                                 fsr1l 0006  
                               btemp 007E                        __CFG_BOREN$ON 0000  
                      __CFG_BORV$LOW 0000                                 start 0002  
          __end_of_SPI1_Exchange8bit 06F4                        __CFG_CSWEN$ON 0000  
                      __CFG_MCLRE$ON 0000                                ??_SPI 0078  
     __size_of_OSCILLATOR_Initialize 0008        __end_of_OSCILLATOR_Initialize 06D8  
                              _ADACT 009F                                ?_main 0070  
                              _T2CON 001F                       __CFG_DEBUG$OFF 0000  
                              _OSCEN 091D                                _TRISA 008C  
                              _TRISB 008D                                _TRISC 008E  
            _SPI1_Exchange8bitBuffer 0744                       _WDT_Initialize 06B3  
                              _event 002B                                _pause 0022  
                              _state 0023                                status 0003  
                              wtemp0 007E             __size_of_SPI1_Initialize 0006  
                    __initialization 07E5                         __end_of_main 06D0  
            __end_of_TMR2_Initialize 06E8                               ??_main 007B  
             __end_of_WDT_Initialize 06B7                               _ADCON0 009D  
                             _ADCON1 009E                               _ADRESH 009C  
                             _ADRESL 009B                               _CCPR1H 0292  
                             _CCPR1L 0291                               _ANSELA 018C  
                             _ANSELB 018D                               _ANSELC 018E  
                 __CFG_RSTOSC$HFINT1 0000                     ?_PWM1_Initialize 0070  
                             _RB7PPS 0E9F                               _ODCONA 028C  
                             _ODCONB 028D                               _ODCONC 028E  
                             _RC7PPS 0EA7                               _OSCFRQ 091F  
                             _WDTCON 0097                SPI1_Exchange8bit@data 0070  
         __size_of_SPI1_Exchange8bit 000C                       __CFG_PWRTE$OFF 0000  
                     __CFG_STVREN$ON 0000                               _button 0024  
                     _PMD_Initialize 06D8            ??_SPI1_Exchange8bitBuffer 0073  
                    ?_WDT_Initialize 0070                    _SYSTEM_Initialize 0700  
            __end_of__initialization 07FD                   ?_SYSTEM_Initialize 0070  
                         _adcResult2 0020                       __pcstackCOMMON 0070  
                       __pidataBANK0 06B7                  ??_SYSTEM_Initialize 0070  
                  ??_SPI1_Initialize 0070                     ?_TMR2_Initialize 0070  
             __end_of_PMD_Initialize 06E0            __end_of_SYSTEM_Initialize 0718  
                         __pbssBANK0 0020                           __pmaintext 06C9  
                    __CFG_PPS1WAY$ON 0000                              _CCP1CON 0293  
                    ?_PMD_Initialize 0070              __size_of_ADC_Initialize 0007  
                            _OSCCON1 0919                              _OSCCON3 091B  
                            _OSCTUNE 091E                              _SSP1ADD 0212  
                            _SLRCONA 030C                              _SLRCONB 030D  
                            _SLRCONC 030E                              _SSP1BUF 0211  
                            __ptext1 0700                              __ptext2 06B3  
                            __ptext3 06E0                              __ptext4 06F4  
                            __ptext5 06D8                              __ptext6 0718  
                            __ptext7 06D0                              __ptext8 06C2  
                            __ptext9 0794                         __size_of_SPI 0051  
              _OSCILLATOR_Initialize 06D0                            _T2CONbits 001F  
           ??_PIN_MANAGER_Initialize 0070           __size_of_SYSTEM_Initialize 0018  
                            _switch1 0025                 end_of_initialization 07FD  
                   ??_WDT_Initialize 0070                     SPI@myWriteBuffer 002C  
                   __CFG_FEXTOSC$OFF 0000                          _CCP1CONbits 0293  
                    _SPI1_Initialize 06BC             __size_of_PWM1_Initialize 000C  
                     _ADC_Initialize 06C2               ?_OSCILLATOR_Initialize 0070  
                start_initialization 07E5                          __end_of_SPI 07E5  
    __size_of_PIN_MANAGER_Initialize 002C                     __CFG_LPBOREN$OFF 0000  
                   ??_PMD_Initialize 0070                          _CCPTMRSbits 029F  
             __end_of_ADC_Initialize 06C9                          __pdataBANK0 0027  
           ?_SPI1_Exchange8bitBuffer 0071                          __pbssCOMMON 007B  
                          ___latbits 0002                            _adcResult 007D  
                      __pcstackBANK0 002C             __size_of_TMR2_Initialize 0008  
            __end_of_SPI1_Initialize 06C2               _PIN_MANAGER_Initialize 0718  
                           SPI@F6706 0029                             SPI@F6709 0027  
                    ?_ADC_Initialize 0070                    ??_PWM1_Initialize 0070  
                           SPI@total 0030                     __CFG_WDTE$SWDTEN 0000  
      SPI1_Exchange8bitBuffer@dataIn 0076        SPI1_Exchange8bitBuffer@bufLen 0071  
                           _PIR1bits 0011      __end_of_SPI1_Exchange8bitBuffer 0794  
                           _SSP1CON1 0215                             _SSP1STAT 0214  
                          _rotateVal 007B                           _ADCON0bits 009D  
                   ?_SPI1_Initialize 0070                    ??_TMR2_Initialize 0070  
            ??_OSCILLATOR_Initialize 0070                             _delayVal 0026  
                           __ptext10 06BC                             __ptext11 0744  
                           __ptext12 06E8                         _SSP1CON1bits 0215  
                      __size_of_main 0007                         _SSP1STATbits 0214  
                        _secondCount 007C              __size_of_WDT_Initialize 0004  
   __size_of_SPI1_Exchange8bitBuffer 0050              ?_PIN_MANAGER_Initialize 0070  
                  __CFG_CLKOUTEN$OFF 0000  SPI1_Exchange8bitBuffer@bytesWritten 0077  
                    _PWM1_Initialize 06F4                     ??_ADC_Initialize 0070  
                         _SSP1DATPPS 0E21                           _SSP1CLKPPS 0E20  
     __end_of_PIN_MANAGER_Initialize 0744                    SPI@myWriteBuffer1 002E  
